

HI-TECH Software PIC18 PRO Macro Assembler V9.80 build 11162 
                                                                                               Mon Jan 20 17:28:22 2014

HI-TECH Software Omniscient Code Generator (PRO mode) build 11162
     1                           	processor	18F45K80
     2                           	fnconf	rparam,??,?,0
     3                           	opt	pw 120
     4                           	opt	pm
     5                           	psect	idataCOMRAM,global,class=CODE,delta=1
     6                           	psect	cinit,global,reloc=2,class=CODE,delta=1
     7                           	psect	bitbssCOMRAM,global,bit,class=COMRAM,space=1,delta=1
     8                           	psect	bssCOMRAM,global,class=COMRAM,space=1,delta=1
     9                           	psect	dataCOMRAM,global,class=COMRAM,space=1,delta=1
    10                           	psect	bssBANK0,global,class=BANK0,space=1,delta=1
    11                           	psect	bssBANK1,global,class=BANK1,space=1,delta=1
    12                           	psect	cstackCOMRAM,global,class=COMRAM,space=1,delta=1
    13                           	psect	text0,global,reloc=2,class=CODE,delta=1
    14                           	psect	text1,global,reloc=2,class=CODE,delta=1
    15                           	psect	text2,global,reloc=2,class=CODE,delta=1
    16                           	psect	text3,global,reloc=2,class=CODE,delta=1
    17                           	psect	text4,global,reloc=2,class=CODE,delta=1
    18                           	psect	text5,global,reloc=2,class=CODE,delta=1
    19                           	psect	text6,global,reloc=2,class=CODE,delta=1
    20                           	psect	text7,global,reloc=2,class=CODE,delta=1
    21                           	psect	text8,global,reloc=2,class=CODE,delta=1
    22                           	psect	text9,global,reloc=2,class=CODE,delta=1
    23                           	psect	text10,global,reloc=2,class=CODE,delta=1
    24                           	psect	text11,global,reloc=2,class=CODE,delta=1
    25                           	psect	text12,global,reloc=2,class=CODE,delta=1
    26                           	psect	text13,global,reloc=2,class=CODE,delta=1
    27                           	psect	text14,global,reloc=2,class=CODE,delta=1
    28                           	psect	text15,global,reloc=2,class=CODE,delta=1
    29                           	psect	text16,global,reloc=2,class=CODE,delta=1
    30                           	psect	text17,global,reloc=2,class=CODE,delta=1
    31                           	psect	text18,global,reloc=2,class=CODE,delta=1
    32                           	psect	text19,global,reloc=2,class=CODE,delta=1
    33                           	psect	text20,global,reloc=2,class=CODE,delta=1
    34                           	psect	text21,global,reloc=2,class=CODE,delta=1
    35                           	psect	text22,global,reloc=2,class=CODE,delta=1
    36                           	psect	text23,global,reloc=2,class=CODE,delta=1
    37                           	psect	text24,global,reloc=2,class=CODE,delta=1
    38                           	psect	text25,global,reloc=2,class=CODE,delta=1
    39                           	psect	text26,global,reloc=2,class=CODE,delta=1
    40                           	psect	text27,global,reloc=2,class=CODE,delta=1
    41                           	psect	text28,global,reloc=2,class=CODE,delta=1
    42                           	psect	text29,global,reloc=2,class=CODE,delta=1
    43                           	psect	text30,global,reloc=2,class=CODE,delta=1
    44                           	psect	text31,global,reloc=2,class=CODE,delta=1
    45                           	psect	text32,global,reloc=2,class=CODE,delta=1
    46                           	psect	text33,global,reloc=2,class=CODE,delta=1
    47                           	psect	intcode,global,reloc=2,class=CODE,delta=1
    48                           	psect	text34,global,reloc=2,class=CODE,delta=1
    49                           	psect	text35,global,reloc=2,class=CODE,delta=1
    50                           	psect	text36,global,reloc=2,class=CODE,delta=1
    51                           	psect	text37,global,reloc=2,class=CODE,delta=1
    52                           	psect	intsave_regs,global,class=BIGRAM,space=1,delta=1
    53                           	psect	text38,global,reloc=2,class=CODE,delta=1
    54                           	psect	rparam,global,class=COMRAM,space=1,delta=1
    55                           	psect	pa_nodes,global,class=CODE,delta=1
    56  0000                     prodl	equ	0xFF3
    57                           intcon	equ	0xFF2
    58                           wreg	equ	0xFE8
    59                           indf1	equ	0xFE7
    60                           postinc1	equ	0xFE6
    61                           postdec1	equ	0xFE5
    62                           fsr1h	equ	0xFE2
    63                           fsr1l	equ	0xFE1
    64                           indf2	equ	0xFDF
    65                           postinc2	equ	0xFDE
    66                           postdec2	equ	0xFDD
    67                           fsr2h	equ	0xFDA
    68                           fsr2l	equ	0xFD9
    69                           status	equ	0xFD8
    70                           
    71                           	psect	idataCOMRAM
    72  001028                     __pidataCOMRAM:
    73                           	opt stack 0
    74                           
    75                           ;initializer for _det_current_sens
    76  001028  0A                 	db	10
    77  001029  0A                 	db	10
    78  00102A  0A                 	db	10
    79  00102B  0A                 	db	10
    80  00102C  0A                 	db	10
    81  00102D  0A                 	db	10
    82  00102E  0A                 	db	10
    83  00102F  0A                 	db	10
    84                           
    85                           ;initializer for _DT_SDdata_counter
    86  001030  FF                 	db	255
    87                           
    88                           ;initializer for _DT_command
    89  001031  FF                 	db	255
    90                           
    91                           ;initializer for _det_enable
    92  001032  FF                 	db	255
    93                           
    94                           ;initializer for _eeprom_addr
    95  001033  0005               	dw	5
    96                           
    97                           ;initializer for _eeprom_num
    98  001035  04                 	db	4
    99  0000                     _ADRESH	set	4036
   100  0000                     _ADRESL	set	4035
   101  0000                     _ANCON0	set	3933
   102  0000                     _ANCON1	set	3932
   103  0000                     _BRGCON1	set	3651
   104  0000                     _BRGCON2	set	3652
   105  0000                     _BRGCON3	set	3653
   106  0000                     _CANCON	set	3951
   107  0000                     _CANSTAT	set	3950
   108  0000                     _CIOCON	set	3952
   109  0000                     _ECANCON	set	3954
   110  0000                     _EEADR	set	3956
   111  0000                     _EEADRH	set	3957
   112  0000                     _EECON1	set	3967
   113  0000                     _EECON2	set	3966
   114  0000                     _EEDATA	set	3955
   115  0000                     _INTCON	set	4082
   116  0000                     _PORTB	set	3969
   117  0000                     _PORTD	set	3971
   118  0000                     _RXB0CON	set	3936
   119  0000                     _RXB0D0	set	3942
   120  0000                     _RXB0D1	set	3943
   121  0000                     _RXB0D2	set	3944
   122  0000                     _RXB0D3	set	3945
   123  0000                     _RXB0D4	set	3946
   124  0000                     _RXB0D5	set	3947
   125  0000                     _RXB0D6	set	3948
   126  0000                     _RXB0D7	set	3949
   127  0000                     _RXB0DLC	set	3941
   128  0000                     _RXB0EIDH	set	3939
   129  0000                     _RXB0EIDL	set	3940
   130  0000                     _RXB0SIDH	set	3937
   131  0000                     _RXB0SIDL	set	3938
   132  0000                     _RXB1CON	set	3888
   133  0000                     _RXB1D0	set	3894
   134  0000                     _RXB1D1	set	3895
   135  0000                     _RXB1D2	set	3896
   136  0000                     _RXB1D3	set	3897
   137  0000                     _RXB1D4	set	3898
   138  0000                     _RXB1D5	set	3899
   139  0000                     _RXB1D6	set	3900
   140  0000                     _RXB1D7	set	3901
   141  0000                     _RXB1DLC	set	3893
   142  0000                     _RXB1EIDH	set	3891
   143  0000                     _RXB1EIDL	set	3892
   144  0000                     _RXB1SIDH	set	3889
   145  0000                     _RXB1SIDL	set	3890
   146  0000                     _RXF0EIDH	set	3810
   147  0000                     _RXF0EIDL	set	3811
   148  0000                     _RXF0SIDH	set	3808
   149  0000                     _RXF0SIDL	set	3809
   150  0000                     _RXF1EIDH	set	3814
   151  0000                     _RXF1EIDL	set	3815
   152  0000                     _RXF1SIDH	set	3812
   153  0000                     _RXF1SIDL	set	3813
   154  0000                     _RXF2EIDH	set	3818
   155  0000                     _RXF2EIDL	set	3819
   156  0000                     _RXF2SIDH	set	3816
   157  0000                     _RXF2SIDL	set	3817
   158  0000                     _RXF3EIDH	set	3822
   159  0000                     _RXF3EIDL	set	3823
   160  0000                     _RXF3SIDH	set	3820
   161  0000                     _RXF3SIDL	set	3821
   162  0000                     _RXF4EIDH	set	3826
   163  0000                     _RXF4EIDL	set	3827
   164  0000                     _RXF4SIDH	set	3824
   165  0000                     _RXF4SIDL	set	3825
   166  0000                     _RXF5EIDH	set	3830
   167  0000                     _RXF5EIDL	set	3831
   168  0000                     _RXF5SIDH	set	3828
   169  0000                     _RXF5SIDL	set	3829
   170  0000                     _RXM0EIDH	set	3834
   171  0000                     _RXM0EIDL	set	3835
   172  0000                     _RXM0SIDH	set	3832
   173  0000                     _RXM0SIDL	set	3833
   174  0000                     _RXM1EIDH	set	3838
   175  0000                     _RXM1EIDL	set	3839
   176  0000                     _RXM1SIDH	set	3836
   177  0000                     _RXM1SIDL	set	3837
   178  0000                     _SSPBUF	set	4041
   179  0000                     _T3CON	set	4017
   180  0000                     _TMR0H	set	4055
   181  0000                     _TMR0L	set	4054
   182  0000                     _TMR1H	set	4047
   183  0000                     _TMR1L	set	4046
   184  0000                     _TMR3H	set	4019
   185  0000                     _TMR3L	set	4018
   186  0000                     _TRISA	set	3986
   187  0000                     _TRISB	set	3987
   188  0000                     _TRISC	set	3988
   189  0000                     _TRISD	set	3989
   190  0000                     _TRISE	set	3990
   191  0000                     _TXB0CON	set	3872
   192  0000                     _TXB0D0	set	3878
   193  0000                     _TXB0D1	set	3879
   194  0000                     _TXB0D2	set	3880
   195  0000                     _TXB0D3	set	3881
   196  0000                     _TXB0D4	set	3882
   197  0000                     _TXB0D5	set	3883
   198  0000                     _TXB0D6	set	3884
   199  0000                     _TXB0D7	set	3885
   200  0000                     _TXB0DLC	set	3877
   201  0000                     _TXB0EIDH	set	3875
   202  0000                     _TXB0EIDL	set	3876
   203  0000                     _TXB0SIDH	set	3873
   204  0000                     _TXB0SIDL	set	3874
   205  0000                     _TXB1CON	set	3856
   206  0000                     _TXB1D0	set	3862
   207  0000                     _TXB1D1	set	3863
   208  0000                     _TXB1D2	set	3864
   209  0000                     _TXB1D3	set	3865
   210  0000                     _TXB1D4	set	3866
   211  0000                     _TXB1D5	set	3867
   212  0000                     _TXB1D6	set	3868
   213  0000                     _TXB1D7	set	3869
   214  0000                     _TXB1DLC	set	3861
   215  0000                     _TXB1EIDH	set	3859
   216  0000                     _TXB1EIDL	set	3860
   217  0000                     _TXB1SIDH	set	3857
   218  0000                     _TXB1SIDL	set	3858
   219  0000                     _TXB2CON	set	3840
   220  0000                     _TXB2D0	set	3846
   221  0000                     _TXB2D1	set	3847
   222  0000                     _TXB2D2	set	3848
   223  0000                     _TXB2D3	set	3849
   224  0000                     _TXB2D4	set	3850
   225  0000                     _TXB2D5	set	3851
   226  0000                     _TXB2D6	set	3852
   227  0000                     _TXB2D7	set	3853
   228  0000                     _TXB2DLC	set	3845
   229  0000                     _TXB2EIDH	set	3843
   230  0000                     _TXB2EIDL	set	3844
   231  0000                     _TXB2SIDH	set	3841
   232  0000                     _TXB2SIDL	set	3842
   233  0000                     _BF	set	32312
   234  0000                     _ERRIF	set	31677
   235  0000                     _RA1	set	31745
   236  0000                     _RA2	set	31746
   237  0000                     _RA3	set	31747
   238  0000                     _RA5	set	31749
   239  0000                     _RB2	set	31754
   240  0000                     _RB3	set	31755
   241  0000                     _RB4	set	31756
   242  0000                     _RBIE	set	32659
   243  0000                     _RC0	set	31760
   244  0000                     _RC1	set	31761
   245  0000                     _RC2	set	31762
   246  0000                     _RC3	set	31763
   247  0000                     _RC4	set	31764
   248  0000                     _RC5	set	31765
   249  0000                     _RC6	set	31766
   250  0000                     _RC7	set	31767
   251  0000                     _RXB0IF	set	31672
   252  0000                     _RXB1IF	set	31673
   253  0000                     _SSPIE	set	31979
   254  0000                     _SSPIF	set	31987
   255  0000                     _SSPOV	set	32310
   256  0000                     _SWDTEN	set	32392
   257  0000                     _T08BIT	set	32430
   258  0000                     _T0CS	set	32429
   259  0000                     _TMR0IE	set	32661
   260  0000                     _TMR0IF	set	32658
   261  0000                     _TMR0ON	set	32431
   262  0000                     _TMR1IE	set	31976
   263  0000                     _TMR1IF	set	31984
   264  0000                     _TMR3IE	set	32001
   265  0000                     _TMR3IF	set	32009
   266  0000                     _TMR3ON	set	32136
   267  0000                     _TXB0IF	set	31674
   268  0000                     _TXB1IF	set	31675
   269  0000                     _TXB2IF	set	31676
   270  0000                     _WCOL	set	32311
   271                           
   272                           ; #config settings
   273  0000                     prodl	equ	0xFF3
   274                           intcon	equ	0xFF2
   275                           wreg	equ	0xFE8
   276                           indf1	equ	0xFE7
   277                           postinc1	equ	0xFE6
   278                           postdec1	equ	0xFE5
   279                           fsr1h	equ	0xFE2
   280                           fsr1l	equ	0xFE1
   281                           indf2	equ	0xFDF
   282                           postinc2	equ	0xFDE
   283                           postdec2	equ	0xFDD
   284                           fsr2h	equ	0xFDA
   285                           fsr2l	equ	0xFD9
   286                           status	equ	0xFD8
   287                           
   288                           	psect	cinit
   289  000DF0                     __pcinit:
   290                           	opt stack 0
   291  000DF0                     start_initialization:
   292                           	opt stack 0
   293                           
   294                           ; Clear objects allocated to BANK1 (160 bytes)
   295  000DF0  EE01  F000         	lfsr	0,__pbssBANK1
   296  000DF4  0EA0               	movlw	160
   297  000DF6                     clear_0:
   298  000DF6  6AEE               	clrf	postinc0,c
   299  000DF8  06E8               	decf	wreg,f,c
   300  000DFA  E1FD               	bnz	clear_0
   301                           
   302                           ; Clear objects allocated to BANK0 (140 bytes)
   303  000DFC  EE00  F060         	lfsr	0,__pbssBANK0
   304  000E00  0E8C               	movlw	140
   305  000E02                     clear_1:
   306  000E02  6AEE               	clrf	postinc0,c
   307  000E04  06E8               	decf	wreg,f,c
   308  000E06  E1FD               	bnz	clear_1
   309                           
   310                           ; Clear objects allocated to BITCOMRAM (1 bytes)
   311  000E08  6A5C               	clrf	(__pbitbssCOMRAM/(0+8))& (0+255),c
   312                           
   313                           ; Clear objects allocated to COMRAM (39 bytes)
   314  000E0A  EE00  F001         	lfsr	0,__pbssCOMRAM
   315  000E0E  0E27               	movlw	39
   316  000E10                     clear_2:
   317  000E10  6AEE               	clrf	postinc0,c
   318  000E12  06E8               	decf	wreg,f,c
   319  000E14  E1FD               	bnz	clear_2
   320                           
   321                           ; Initialize objects allocated to COMRAM (14 bytes)
   322                           ; load TBLPTR registers with __pidataCOMRAM
   323  000E16  0E28               	movlw	low __pidataCOMRAM
   324  000E18  6EF6               	movwf	tblptrl,c
   325  000E1A  0E10               	movlw	high __pidataCOMRAM
   326  000E1C  6EF7               	movwf	tblptrh,c
   327  000E1E  0E00               	movlw	low (__pidataCOMRAM shr (0+16))
   328  000E20  6EF8               	movwf	tblptru,c
   329  000E22  EE00  F04E         	lfsr	0,__pdataCOMRAM
   330  000E26  EE10 F00E          	lfsr	1,14
   331  000E2A                     copy_data0:
   332  000E2A  0009               	tblrd		*+
   333  000E2C  CFF5 FFEE          	movff	tablat,postinc0
   334  000E30  50E5               	movf	postdec1,w,c
   335  000E32  50E1               	movf	fsr1l,w,c
   336  000E34  E1FA               	bnz	copy_data0
   337  000E36                     end_of_initialization:
   338                           	opt stack 0
   339  000E36  0100               	movlb	0
   340  000E38  EFEF  F002         	goto	_main	;jump to C main() function
   341                           tblptru	equ	0xFF8
   342                           tblptrh	equ	0xFF7
   343                           tblptrl	equ	0xFF6
   344                           tablat	equ	0xFF5
   345                           prodl	equ	0xFF3
   346                           intcon	equ	0xFF2
   347                           postinc0	equ	0xFEE
   348                           wreg	equ	0xFE8
   349                           indf1	equ	0xFE7
   350                           postinc1	equ	0xFE6
   351                           postdec1	equ	0xFE5
   352                           fsr1h	equ	0xFE2
   353                           fsr1l	equ	0xFE1
   354                           indf2	equ	0xFDF
   355                           postinc2	equ	0xFDE
   356                           postdec2	equ	0xFDD
   357                           fsr2h	equ	0xFDA
   358                           fsr2l	equ	0xFD9
   359                           status	equ	0xFD8
   360                           
   361                           	psect	bitbssCOMRAM
   362  0002E0                     __pbitbssCOMRAM:
   363                           	opt stack 0
   364  0002E0                     _DTSync:
   365                           	opt stack 0
   366  0002E0                     	ds	1
   367  0002E1                     _det_output_enable:
   368                           	opt stack 0
   369  0002E1                     	ds	1
   370  0002E2                     _time0_int:
   371                           	opt stack 0
   372  0002E2                     	ds	1
   373  0002E3                     _time3_int:
   374                           	opt stack 0
   375  0002E3                     	ds	1
   376                           tblptru	equ	0xFF8
   377                           tblptrh	equ	0xFF7
   378                           tblptrl	equ	0xFF6
   379                           tablat	equ	0xFF5
   380                           prodl	equ	0xFF3
   381                           intcon	equ	0xFF2
   382                           postinc0	equ	0xFEE
   383                           wreg	equ	0xFE8
   384                           indf1	equ	0xFE7
   385                           postinc1	equ	0xFE6
   386                           postdec1	equ	0xFE5
   387                           fsr1h	equ	0xFE2
   388                           fsr1l	equ	0xFE1
   389                           indf2	equ	0xFDF
   390                           postinc2	equ	0xFDE
   391                           postdec2	equ	0xFDD
   392                           fsr2h	equ	0xFDA
   393                           fsr2l	equ	0xFD9
   394                           status	equ	0xFD8
   395                           
   396                           	psect	bssCOMRAM
   397  000001                     __pbssCOMRAM:
   398                           	opt stack 0
   399  000001                     _det_timer_average:
   400                           	opt stack 0
   401  000001                     	ds	16
   402  000011                     _DT_sync_buf:
   403                           	opt stack 0
   404  000011                     	ds	5
   405  000016                     _det_status:
   406                           	opt stack 0
   407  000016                     	ds	4
   408  00001A                     _det_result:
   409                           	opt stack 0
   410  00001A                     	ds	3
   411  00001D                     DataTransferIntServer@buf_p:
   412                           	opt stack 0
   413  00001D                     	ds	1
   414  00001E                     _DT_data_counter:
   415                           	opt stack 0
   416  00001E                     	ds	1
   417  00001F                     _det_fillbuf_enable:
   418                           	opt stack 0
   419  00001F                     	ds	1
   420  000020                     _det_result_output:
   421                           	opt stack 0
   422  000020                     	ds	1
   423  000021                     _det_start:
   424                           	opt stack 0
   425  000021                     	ds	1
   426  000022                     _det_current_sens_lv:
   427                           	opt stack 0
   428  000022                     	ds	4
   429  000026                     _det_osc_cfg:
   430                           	opt stack 0
   431  000026                     	ds	2
   432                           tblptru	equ	0xFF8
   433                           tblptrh	equ	0xFF7
   434                           tblptrl	equ	0xFF6
   435                           tablat	equ	0xFF5
   436                           prodl	equ	0xFF3
   437                           intcon	equ	0xFF2
   438                           postinc0	equ	0xFEE
   439                           wreg	equ	0xFE8
   440                           indf1	equ	0xFE7
   441                           postinc1	equ	0xFE6
   442                           postdec1	equ	0xFE5
   443                           fsr1h	equ	0xFE2
   444                           fsr1l	equ	0xFE1
   445                           indf2	equ	0xFDF
   446                           postinc2	equ	0xFDE
   447                           postdec2	equ	0xFDD
   448                           fsr2h	equ	0xFDA
   449                           fsr2l	equ	0xFD9
   450                           status	equ	0xFD8
   451                           
   452                           	psect	dataCOMRAM
   453  00004E                     __pdataCOMRAM:
   454                           	opt stack 0
   455  00004E                     _det_current_sens:
   456                           	opt stack 0
   457  00004E                     	ds	8
   458  000056                     _DT_SDdata_counter:
   459                           	opt stack 0
   460  000056                     	ds	1
   461  000057                     _DT_command:
   462                           	opt stack 0
   463  000057                     	ds	1
   464  000058                     _det_enable:
   465                           	opt stack 0
   466  000058                     	ds	1
   467  000059                     _eeprom_addr:
   468                           	opt stack 0
   469  000059                     	ds	2
   470  00005B                     _eeprom_num:
   471                           	opt stack 0
   472  00005B                     	ds	1
   473                           tblptru	equ	0xFF8
   474                           tblptrh	equ	0xFF7
   475                           tblptrl	equ	0xFF6
   476                           tablat	equ	0xFF5
   477                           prodl	equ	0xFF3
   478                           intcon	equ	0xFF2
   479                           postinc0	equ	0xFEE
   480                           wreg	equ	0xFE8
   481                           indf1	equ	0xFE7
   482                           postinc1	equ	0xFE6
   483                           postdec1	equ	0xFE5
   484                           fsr1h	equ	0xFE2
   485                           fsr1l	equ	0xFE1
   486                           indf2	equ	0xFDF
   487                           postinc2	equ	0xFDE
   488                           postdec2	equ	0xFDD
   489                           fsr2h	equ	0xFDA
   490                           fsr2l	equ	0xFD9
   491                           status	equ	0xFD8
   492                           
   493                           	psect	bssBANK0
   494  000060                     __pbssBANK0:
   495                           	opt stack 0
   496  000060                     _ch_timeout_timer:
   497                           	opt stack 0
   498  000060                     	ds	16
   499  000070                     _det_pluse_counter:
   500                           	opt stack 0
   501  000070                     	ds	16
   502  000080                     _det_timer_base:
   503                           	opt stack 0
   504  000080                     	ds	16
   505  000090                     _det_timer_conter:
   506                           	opt stack 0
   507  000090                     	ds	16
   508  0000A0                     _det_buf_p:
   509                           	opt stack 0
   510  0000A0                     	ds	8
   511  0000A8                     _det_pluse_counter_h:
   512                           	opt stack 0
   513  0000A8                     	ds	8
   514  0000B0                     _det_pluse_counter_l:
   515                           	opt stack 0
   516  0000B0                     	ds	8
   517  0000B8                     _DT_data:
   518                           	opt stack 0
   519  0000B8                     	ds	18
   520  0000CA                     _DT_data1:
   521                           	opt stack 0
   522  0000CA                     	ds	18
   523  0000DC                     _det_current_sens_table:
   524                           	opt stack 0
   525  0000DC                     	ds	16
   526                           tblptru	equ	0xFF8
   527                           tblptrh	equ	0xFF7
   528                           tblptrl	equ	0xFF6
   529                           tablat	equ	0xFF5
   530                           prodl	equ	0xFF3
   531                           intcon	equ	0xFF2
   532                           postinc0	equ	0xFEE
   533                           wreg	equ	0xFE8
   534                           indf1	equ	0xFE7
   535                           postinc1	equ	0xFE6
   536                           postdec1	equ	0xFE5
   537                           fsr1h	equ	0xFE2
   538                           fsr1l	equ	0xFE1
   539                           indf2	equ	0xFDF
   540                           postinc2	equ	0xFDE
   541                           postdec2	equ	0xFDD
   542                           fsr2h	equ	0xFDA
   543                           fsr2l	equ	0xFD9
   544                           status	equ	0xFD8
   545                           
   546                           	psect	bssBANK1
   547  000100                     __pbssBANK1:
   548                           	opt stack 0
   549  000100                     _det_timer_counter_buf:
   550                           	opt stack 0
   551  000100                     	ds	160
   552                           tblptru	equ	0xFF8
   553                           tblptrh	equ	0xFF7
   554                           tblptrl	equ	0xFF6
   555                           tablat	equ	0xFF5
   556                           prodl	equ	0xFF3
   557                           intcon	equ	0xFF2
   558                           postinc0	equ	0xFEE
   559                           wreg	equ	0xFE8
   560                           indf1	equ	0xFE7
   561                           postinc1	equ	0xFE6
   562                           postdec1	equ	0xFE5
   563                           fsr1h	equ	0xFE2
   564                           fsr1l	equ	0xFE1
   565                           indf2	equ	0xFDF
   566                           postinc2	equ	0xFDE
   567                           postdec2	equ	0xFDD
   568                           fsr2h	equ	0xFDA
   569                           fsr2l	equ	0xFD9
   570                           status	equ	0xFD8
   571                           
   572                           	psect	cstackCOMRAM
   573  000028                     __pcstackCOMRAM:
   574                           	opt stack 0
   575  000028                     ?_DetBufWrite:
   576                           	opt stack 0
   577  000028                     ?_EEPROMRead:
   578                           	opt stack 0
   579  000028                     ?_EEPROMWrite:
   580                           	opt stack 0
   581  000028                     ?_delayus:
   582                           	opt stack 0
   583  000028                     ?_Ch_Timeout_Processing:
   584                           	opt stack 0
   585  000028                     ?_TMR0IntServer:
   586                           	opt stack 0
   587  000028                     ??_TMR0IntServer:
   588                           	opt stack 0
   589  000028                     ?_TMR1IntServer:
   590                           	opt stack 0
   591  000028                     ??_TMR1IntServer:
   592                           	opt stack 0
   593  000028                     ?_TMR3IntServer:
   594                           	opt stack 0
   595  000028                     ??_TMR3IntServer:
   596                           	opt stack 0
   597  000028                     ?_DataTransferIntServer:
   598                           	opt stack 0
   599  000028                     ??_DataTransferIntServer:
   600                           	opt stack 0
   601  000028                     ?_IntServer:
   602                           	opt stack 0
   603  000028                     ??_IntServer:
   604                           	opt stack 0
   605  000028                     ?_PORTInit:
   606                           	opt stack 0
   607  000028                     ??_PORTInit:
   608                           	opt stack 0
   609  000028                     ?_IntManager:
   610                           	opt stack 0
   611  000028                     ??_IntManager:
   612                           	opt stack 0
   613  000028                     ?_Set595Output:
   614                           	opt stack 0
   615  000028                     ?_SetFreq:
   616                           	opt stack 0
   617  000028                     ?_SetSens:
   618                           	opt stack 0
   619  000028                     ?_SetConfig:
   620                           	opt stack 0
   621  000028                     ?_PulseErrSet:
   622                           	opt stack 0
   623  000028                     ??_PulseErrSet:
   624                           	opt stack 0
   625  000028                     ?_GetChSampPluse:
   626                           	opt stack 0
   627  000028                     ?_GetSampPluse:
   628                           	opt stack 0
   629  000028                     ?_DetInit:
   630                           	opt stack 0
   631  000028                     ?_StartDet:
   632                           	opt stack 0
   633  000028                     ?_DTSend:
   634                           	opt stack 0
   635  000028                     ?_DTRecv:
   636                           	opt stack 0
   637  000028                     ?_StartCalc:
   638                           	opt stack 0
   639  000028                     ??_StartCalc:
   640                           	opt stack 0
   641  000028                     ?_ReadFrequency:
   642                           	opt stack 0
   643  000028                     ?_ReadSensTable:
   644                           	opt stack 0
   645  000028                     ?_DTWriteSensLv:
   646                           	opt stack 0
   647  000028                     ?_DTWriteSens:
   648                           	opt stack 0
   649  000028                     ?_DTWriteOSCSet:
   650                           	opt stack 0
   651  000028                     ?_GetCoilState:
   652                           	opt stack 0
   653  000028                     ?_DTRest:
   654                           	opt stack 0
   655  000028                     ??_DTRest:
   656                           	opt stack 0
   657  000028                     ?_TransportDataProcess:
   658                           	opt stack 0
   659  000028                     ?_DTOperation:
   660                           	opt stack 0
   661  000028                     ?_main:
   662                           	opt stack 0
   663  000028                     ?_GetTimeAverage:
   664                           	opt stack 0
   665  000028                     ?_GetTimerCounter:
   666                           	opt stack 0
   667  000028                     EEPROMRead@num:
   668                           	opt stack 0
   669  000028                     EEPROMWrite@num:
   670                           	opt stack 0
   671  000028                     Set595Output@num:
   672                           	opt stack 0
   673  000028                     SetSens@level:
   674                           	opt stack 0
   675  000028                     DTSend@dat:
   676                           	opt stack 0
   677  000028                     delayus@us:
   678                           	opt stack 0
   679  000028                     DetBufWrite@val:
   680                           	opt stack 0
   681  000028                     DTRecv@dat:
   682                           	opt stack 0
   683                           
   684                           ; 2 bytes @ 0x0
   685  000028                     	ds	1
   686  000029                     ??_Set595Output:
   687                           	opt stack 0
   688  000029                     ??_SetSens:
   689                           	opt stack 0
   690  000029                     ??_DTSend:
   691                           	opt stack 0
   692  000029                     EEPROMWrite@dat:
   693                           	opt stack 0
   694  000029                     Set595Output@j:
   695                           	opt stack 0
   696  000029                     EEPROMRead@dat:
   697                           	opt stack 0
   698                           
   699                           ; 2 bytes @ 0x1
   700  000029                     	ds	1
   701  00002A                     ??_GetTimeAverage:
   702                           	opt stack 0
   703  00002A                     ??_EEPROMWrite:
   704                           	opt stack 0
   705  00002A                     ??_delayus:
   706                           	opt stack 0
   707  00002A                     ??_GetTimerCounter:
   708                           	opt stack 0
   709  00002A                     ??_DTRecv:
   710                           	opt stack 0
   711  00002A                     Set595Output@dat:
   712                           	opt stack 0
   713  00002A                     SetSens@table:
   714                           	opt stack 0
   715  00002A                     DetBufWrite@ch:
   716                           	opt stack 0
   717  00002A                     StartCalc@i:
   718                           	opt stack 0
   719  00002A                     delayus@i:
   720                           	opt stack 0
   721                           
   722                           ; 2 bytes @ 0x2
   723  00002A                     	ds	1
   724  00002B                     ??_DetBufWrite:
   725                           	opt stack 0
   726  00002B                     ??_EEPROMRead:
   727                           	opt stack 0
   728  00002B                     Set595Output@tempd:
   729                           	opt stack 0
   730  00002B                     PulseErrSet@ch:
   731                           	opt stack 0
   732                           
   733                           ; 1 bytes @ 0x3
   734  00002B                     	ds	1
   735  00002C                     ?_delayms:
   736                           	opt stack 0
   737  00002C                     ??_GetChSampPluse:
   738                           	opt stack 0
   739  00002C                     EEPROMWrite@addr:
   740                           	opt stack 0
   741  00002C                     Set595Output@i:
   742                           	opt stack 0
   743  00002C                     GetTimerCounter@temp_sta:
   744                           	opt stack 0
   745  00002C                     delayms@ms:
   746                           	opt stack 0
   747                           
   748                           ; 2 bytes @ 0x4
   749  00002C                     	ds	1
   750  00002D                     ??_SetFreq:
   751                           	opt stack 0
   752  00002D                     EEPROMRead@addr:
   753                           	opt stack 0
   754  00002D                     DTSend@d_size:
   755                           	opt stack 0
   756  00002D                     DTRecv@d_size:
   757                           	opt stack 0
   758  00002D                     SetFreq@temp_data:
   759                           	opt stack 0
   760  00002D                     GetTimerCounter@time_val:
   761                           	opt stack 0
   762                           
   763                           ; 2 bytes @ 0x5
   764  00002D                     	ds	1
   765  00002E                     ??_delayms:
   766                           	opt stack 0
   767  00002E                     ??_ReadFrequency:
   768                           	opt stack 0
   769  00002E                     ?_ReadSensLv:
   770                           	opt stack 0
   771  00002E                     ??_ReadSensTable:
   772                           	opt stack 0
   773  00002E                     DTSend@i:
   774                           	opt stack 0
   775  00002E                     DTRecv@i:
   776                           	opt stack 0
   777  00002E                     ReadFrequency@dat:
   778                           	opt stack 0
   779  00002E                     ReadSensTable@dat:
   780                           	opt stack 0
   781  00002E                     delayms@i:
   782                           	opt stack 0
   783  00002E                     GetTimeAverage@tempData:
   784                           	opt stack 0
   785  00002E                     ReadSensLv@dat:
   786                           	opt stack 0
   787                           
   788                           ; 2 bytes @ 0x6
   789  00002E                     	ds	1
   790  00002F                     ??_DTWriteSens:
   791                           	opt stack 0
   792  00002F                     SetFreq@dat:
   793                           	opt stack 0
   794  00002F                     GetChSampPluse@ch:
   795                           	opt stack 0
   796  00002F                     GetTimerCounter@ch:
   797                           	opt stack 0
   798  00002F                     DTSend@j:
   799                           	opt stack 0
   800  00002F                     DTRecv@j:
   801                           	opt stack 0
   802  00002F                     DTWriteSens@dat:
   803                           	opt stack 0
   804                           
   805                           ; 1 bytes @ 0x7
   806  00002F                     	ds	1
   807  000030                     ??_SetConfig:
   808                           	opt stack 0
   809  000030                     ??_GetSampPluse:
   810                           	opt stack 0
   811  000030                     ??_StartDet:
   812                           	opt stack 0
   813  000030                     ??_ReadSensLv:
   814                           	opt stack 0
   815  000030                     ??_DTWriteSensLv:
   816                           	opt stack 0
   817  000030                     ??_DTWriteOSCSet:
   818                           	opt stack 0
   819  000030                     DTWriteSensLv@dat:
   820                           	opt stack 0
   821  000030                     DTWriteOSCSet@dat:
   822                           	opt stack 0
   823  000030                     GetTimeAverage@tempData1:
   824                           	opt stack 0
   825                           
   826                           ; 2 bytes @ 0x8
   827  000030                     	ds	1
   828  000031                     SetConfig@EEPromData:
   829                           	opt stack 0
   830                           
   831                           ; 22 bytes @ 0x9
   832  000031                     	ds	1
   833  000032                     GetTimeAverage@tempSum:
   834                           	opt stack 0
   835                           
   836                           ; 4 bytes @ 0xA
   837  000032                     	ds	1
   838  000033                     GetSampPluse@i:
   839                           	opt stack 0
   840                           
   841                           ; 1 bytes @ 0xB
   842  000033                     	ds	1
   843  000034                     ??_GetCoilState:
   844                           	opt stack 0
   845  000034                     ??_TransportDataProcess:
   846                           	opt stack 0
   847  000034                     ??_DTOperation:
   848                           	opt stack 0
   849  000034                     StartDet@temp_timer_counter:
   850                           	opt stack 0
   851                           
   852                           ; 2 bytes @ 0xC
   853  000034                     	ds	2
   854  000036                     GetTimeAverage@j:
   855                           	opt stack 0
   856  000036                     StartDet@i:
   857                           	opt stack 0
   858                           
   859                           ; 1 bytes @ 0xE
   860  000036                     	ds	1
   861  000037                     GetTimeAverage@k:
   862                           	opt stack 0
   863                           
   864                           ; 1 bytes @ 0xF
   865  000037                     	ds	1
   866  000038                     GetTimeAverage@ch:
   867                           	opt stack 0
   868                           
   869                           ; 1 bytes @ 0x10
   870  000038                     	ds	1
   871  000039                     GetTimeAverage@i:
   872                           	opt stack 0
   873  000039                     DTOperation@dt_dat:
   874                           	opt stack 0
   875                           
   876                           ; 7 bytes @ 0x11
   877  000039                     	ds	1
   878  00003A                     ??_Ch_Timeout_Processing:
   879                           	opt stack 0
   880  00003A                     ??_DetInit:
   881                           	opt stack 0
   882                           
   883                           ; 0 bytes @ 0x12
   884  00003A                     	ds	2
   885  00003C                     Ch_Timeout_Processing@j:
   886                           	opt stack 0
   887  00003C                     DetInit@j:
   888                           	opt stack 0
   889                           
   890                           ; 1 bytes @ 0x14
   891  00003C                     	ds	1
   892  00003D                     Ch_Timeout_Processing@i:
   893                           	opt stack 0
   894  00003D                     DetInit@i:
   895                           	opt stack 0
   896                           
   897                           ; 1 bytes @ 0x15
   898  00003D                     	ds	3
   899  000040                     DTOperation@i:
   900                           	opt stack 0
   901                           
   902                           ; 1 bytes @ 0x18
   903  000040                     	ds	7
   904  000047                     SetConfig@i:
   905                           	opt stack 0
   906                           
   907                           ; 1 bytes @ 0x1F
   908  000047                     	ds	1
   909  000048                     ??_main:
   910                           	opt stack 0
   911                           
   912                           ; 0 bytes @ 0x20
   913  000048                     	ds	2
   914  00004A                     main@a:
   915                           	opt stack 0
   916                           
   917                           ; 1 bytes @ 0x22
   918  00004A                     	ds	1
   919  00004B                     main@k:
   920                           	opt stack 0
   921                           
   922                           ; 1 bytes @ 0x23
   923  00004B                     	ds	1
   924  00004C                     main@t:
   925                           	opt stack 0
   926                           
   927                           ; 1 bytes @ 0x24
   928  00004C                     	ds	1
   929  00004D                     main@j:
   930                           	opt stack 0
   931                           
   932                           ; 1 bytes @ 0x25
   933  00004D                     	ds	1
   934                           tblptru	equ	0xFF8
   935                           tblptrh	equ	0xFF7
   936                           tblptrl	equ	0xFF6
   937                           tablat	equ	0xFF5
   938                           prodl	equ	0xFF3
   939                           intcon	equ	0xFF2
   940                           postinc0	equ	0xFEE
   941                           wreg	equ	0xFE8
   942                           indf1	equ	0xFE7
   943                           postinc1	equ	0xFE6
   944                           postdec1	equ	0xFE5
   945                           fsr1h	equ	0xFE2
   946                           fsr1l	equ	0xFE1
   947                           indf2	equ	0xFDF
   948                           postinc2	equ	0xFDE
   949                           postdec2	equ	0xFDD
   950                           fsr2h	equ	0xFDA
   951                           fsr2l	equ	0xFD9
   952                           status	equ	0xFD8
   953                           
   954 ;;
   955 ;;Main: autosize = 0, tempsize = 2, incstack = 0, save=0
   956 ;;
   957 ;; *************** function _main *****************
   958 ;; Defined at:
   959 ;;		line 1599 in file "E:\working\coil\coil-v0.0-14\CoilDet\CoilDet-V0.0.C"
   960 ;; Parameters:    Size  Location     Type
   961 ;;		None
   962 ;; Auto vars:     Size  Location     Type
   963 ;;  j               1   37[COMRAM] unsigned char 
   964 ;;  t               1   36[COMRAM] unsigned char 
   965 ;;  k               1   35[COMRAM] unsigned char 
   966 ;;  a               1   34[COMRAM] unsigned char 
   967 ;; Return value:  Size  Location     Type
   968 ;;		None               void
   969 ;; Registers used:
   970 ;;		wreg, fsr1l, fsr1h, fsr2l, fsr2h, status,2, status,0, prodl, prodh, cstack
   971 ;; Tracked objects:
   972 ;;		On entry : 0/0
   973 ;;		On exit  : F/0
   974 ;;		Unchanged: 0/0
   975 ;; Data sizes:     COMRAM   BANK0   BANK1   BANK2   BANK3   BANK4   BANK5   BANK6   BANK7   BANK8   BANK9  BANK10  BANK1
      +1  BANK12  BANK13  BANK14
   976 ;;      Params:         0       0       0       0       0       0       0       0       0       0       0       0       
      +0       0       0       0
   977 ;;      Locals:         4       0       0       0       0       0       0       0       0       0       0       0       
      +0       0       0       0
   978 ;;      Temps:          2       0       0       0       0       0       0       0       0       0       0       0       
      +0       0       0       0
   979 ;;      Totals:         6       0       0       0       0       0       0       0       0       0       0       0       
      +0       0       0       0
   980 ;;Total ram usage:        6 bytes
   981 ;; Hardware stack levels required when called:    8
   982 ;; This function calls:
   983 ;;		_delayms
   984 ;;		_PORTInit
   985 ;;		_IntManager
   986 ;;		_SetConfig
   987 ;;		_GetSampPluse
   988 ;;		_DetInit
   989 ;;		_StartDet
   990 ;;		_StartCalc
   991 ;;		_DTOperation
   992 ;;		_Ch_Timeout_Processing
   993 ;;		_DetBufWrite
   994 ;;		_GetTimeAverage
   995 ;; This function is called by:
   996 ;;		Startup code after reset
   997 ;; This function uses a non-reentrant model
   998 ;;
   999                           
  1000                           	psect	text0
  1001  0005DE                     __ptext0:
  1002                           	opt stack 0
  1003  0005DE                     _main:
  1004                           	opt stack 23
  1005                           
  1006                           ;CoilDet-V0.0.C: 1600: unsigned char a = 0x00;
  1007                           
  1008                           ; BSR set to: 0
  1009  0005DE  6A4A               	clrf	main@a,c
  1010  0005E0  6A4B               	clrf	main@k,c
  1011  0005E2  6A4C               	clrf	main@t,c
  1012                           
  1013                           ;CoilDet-V0.0.C: 1602: SWDTEN =0;
  1014  0005E4  90D1               	bcf	4049,0,c	;volatile
  1015                           
  1016                           ;CoilDet-V0.0.C: 1603: delayms(500);
  1017  0005E6  0E01               	movlw	1
  1018  0005E8  6E2D               	movwf	?_delayms+1,c
  1019  0005EA  0EF4               	movlw	244
  1020  0005EC  6E2C               	movwf	?_delayms,c
  1021  0005EE  ECA6  F007         	call	_delayms	;wreg free
  1022                           
  1023                           ;CoilDet-V0.0.C: 1604: PORTInit();
  1024  0005F2  EC5E  F007         	call	_PORTInit	;wreg free
  1025                           
  1026                           ; BSR set to: 15
  1027                           ;CoilDet-V0.0.C: 1605: IntManager();
  1028  0005F6  ECE6  F007         	call	_IntManager	;wreg free
  1029                           
  1030                           ; BSR set to: 15
  1031                           ;CoilDet-V0.0.C: 1607: SetConfig();
  1032  0005FA  ECC0  F003         	call	_SetConfig	;wreg free
  1033                           
  1034                           ;CoilDet-V0.0.C: 1608: GetSampPluse();
  1035  0005FE  EC24  F004         	call	_GetSampPluse	;wreg free
  1036                           
  1037                           ;CoilDet-V0.0.C: 1609: DetInit();
  1038  000602  EC7C  F002         	call	_DetInit	;wreg free
  1039                           
  1040                           ;CoilDet-V0.0.C: 1610: SWDTEN =1;
  1041  000606  80D1               	bsf	4049,0,c	;volatile
  1042  000608                     l3023:
  1043                           
  1044                           ;CoilDet-V0.0.C: 1612: {
  1045                           ;CoilDet-V0.0.C: 1613: StartDet();
  1046  000608  EC34  F000         	call	_StartDet	;wreg free
  1047                           
  1048                           ;CoilDet-V0.0.C: 1614: StartCalc();
  1049  00060C  EC5C  F003         	call	_StartCalc	;wreg free
  1050  000610  0004               	clrwdt		;# 
  1051                           
  1052                           ;CoilDet-V0.0.C: 1617: if(!RA5)
  1053  000612  AA80               	btfss	3968,5,c	;volatile
  1054                           
  1055                           ;CoilDet-V0.0.C: 1618: {
  1056                           ;CoilDet-V0.0.C: 1619: DTOperation();
  1057  000614  ECF6  F000         	call	_DTOperation	;wreg free
  1058                           
  1059                           ;CoilDet-V0.0.C: 1620: }
  1060                           ;CoilDet-V0.0.C: 1621: a++;k++;
  1061  000618  2A4A               	incf	main@a,f,c
  1062  00061A  2A4B               	incf	main@k,f,c
  1063                           
  1064                           ;CoilDet-V0.0.C: 1622: t++;
  1065  00061C  2A4C               	incf	main@t,f,c
  1066                           
  1067                           ;CoilDet-V0.0.C: 1623: if(t>=20)
  1068  00061E  0E13               	movlw	19
  1069  000620  644C               	cpfsgt	main@t,c
  1070  000622  D003               	goto	l3045
  1071                           
  1072                           ;CoilDet-V0.0.C: 1624: {
  1073                           ;CoilDet-V0.0.C: 1626: t=0;
  1074  000624  6A4C               	clrf	main@t,c
  1075                           
  1076                           ;CoilDet-V0.0.C: 1627: Ch_Timeout_Processing();
  1077  000626  EC78  F004         	call	_Ch_Timeout_Processing	;wreg free
  1078  00062A                     l3045:
  1079                           
  1080                           ;CoilDet-V0.0.C: 1628: }
  1081                           ;CoilDet-V0.0.C: 1630: if(k>=50)
  1082  00062A  0E31               	movlw	49
  1083  00062C  644B               	cpfsgt	main@k,c
  1084  00062E  D021               	goto	l3061
  1085                           
  1086                           ;CoilDet-V0.0.C: 1631: {
  1087                           ;CoilDet-V0.0.C: 1632: k=0;
  1088  000630  6A4B               	clrf	main@k,c
  1089                           
  1090                           ;CoilDet-V0.0.C: 1633: for(j=0;j<8;j++)
  1091  000632  6A4D               	clrf	main@j,c
  1092  000634                     l3053:
  1093                           
  1094                           ;CoilDet-V0.0.C: 1634: {
  1095                           ;CoilDet-V0.0.C: 1636: if((det_fillbuf_enable>>j)&0x01)
  1096  000634  C04D  F048         	movff	main@j,??_main
  1097  000638  C01F  F049         	movff	_det_fillbuf_enable,??_main+1
  1098  00063C  2A48               	incf	??_main,f,c
  1099  00063E  D002               	goto	u2554
  1100  000640                     u2555:
  1101  000640  90D8               	bcf	status,0,c
  1102  000642  3249               	rrcf	??_main+1,f,c
  1103  000644                     u2554:
  1104  000644  2E48               	decfsz	??_main,f,c
  1105  000646  D7FC               	goto	u2555
  1106  000648  A049               	btfss	??_main+1,0,c
  1107  00064A  D00F               	goto	l3057
  1108                           
  1109                           ;CoilDet-V0.0.C: 1637: DetBufWrite(det_timer_conter[j],j);
  1110  00064C  504D               	movf	main@j,w,c
  1111  00064E  0D02               	mullw	2
  1112  000650  50F3               	movf	prodl,w,c
  1113  000652  0100               	movlb	0	; () banked
  1114  000654  0F90               	addlw	low _det_timer_conter
  1115  000656  6ED9               	movwf	fsr2l,c
  1116  000658  6ADA               	clrf	fsr2h,c
  1117  00065A  CFDE F028          	movff	postinc2,?_DetBufWrite
  1118  00065E  CFDD F029          	movff	postdec2,?_DetBufWrite+1
  1119  000662  C04D  F02A         	movff	main@j,?_DetBufWrite+2
  1120  000666  ECA0  F006         	call	_DetBufWrite	;wreg free
  1121  00066A                     l3057:
  1122  00066A  2A4D               	incf	main@j,f,c
  1123  00066C  0E07               	movlw	7
  1124  00066E  644D               	cpfsgt	main@j,c
  1125  000670  D7E1               	goto	l3053
  1126  000672                     l3061:
  1127                           
  1128                           ;CoilDet-V0.0.C: 1638: }
  1129                           ;CoilDet-V0.0.C: 1639: }
  1130                           ;CoilDet-V0.0.C: 1640: if(a>=200)
  1131  000672  0EC7               	movlw	199
  1132  000674  644A               	cpfsgt	main@a,c
  1133  000676  D7C8               	goto	l3023
  1134                           
  1135                           ;CoilDet-V0.0.C: 1641: {
  1136                           ;CoilDet-V0.0.C: 1642: a =0x00;
  1137  000678  6A4A               	clrf	main@a,c
  1138                           
  1139                           ;CoilDet-V0.0.C: 1643: det_start++;
  1140  00067A  2A21               	incf	_det_start,f,c
  1141                           
  1142                           ;CoilDet-V0.0.C: 1644: if(det_start>=1)
  1143  00067C  5021               	movf	_det_start,w,c
  1144  00067E  E004               	bz	l3073
  1145                           
  1146                           ;CoilDet-V0.0.C: 1645: {
  1147                           ;CoilDet-V0.0.C: 1646: det_start=1;
  1148  000680  0E01               	movlw	1
  1149  000682  6E21               	movwf	_det_start,c
  1150                           
  1151                           ;CoilDet-V0.0.C: 1647: det_output_enable = 1;
  1152  000684  0100               	movlb	(_det_output_enable/(0+8)) shr (0+8)
  1153  000686  825C               	bsf	_det_output_enable/(0+8),_det_output_enable& (0+7),c
  1154  000688                     l3073:
  1155                           
  1156                           ;CoilDet-V0.0.C: 1649: }
  1157                           ;CoilDet-V0.0.C: 1652: for(j=0;j<8;j++)
  1158  000688  6A4D               	clrf	main@j,c
  1159  00068A                     l3079:
  1160                           
  1161                           ;CoilDet-V0.0.C: 1653: {
  1162                           ;CoilDet-V0.0.C: 1655: det_timer_average[j] = GetTimeAverage(j);
  1163  00068A  504D               	movf	main@j,w,c
  1164  00068C  EC7D  F001         	call	_GetTimeAverage
  1165  000690  504D               	movf	main@j,w,c
  1166  000692  0D02               	mullw	2
  1167  000694  50F3               	movf	prodl,w,c
  1168  000696  0F01               	addlw	low _det_timer_average
  1169  000698  6ED9               	movwf	fsr2l,c
  1170  00069A  6ADA               	clrf	fsr2h,c
  1171  00069C  C028  FFDE         	movff	?_GetTimeAverage,postinc2
  1172  0006A0  C029  FFDD         	movff	?_GetTimeAverage+1,postdec2
  1173                           
  1174                           ;CoilDet-V0.0.C: 1656: DT_data1[2] = det_timer_average[7] >>8;
  1175  0006A4  5010               	movf	_det_timer_average+15,w,c
  1176  0006A6  0100               	movlb	0	; () banked
  1177  0006A8  6FCC               	movwf	(_DT_data1+2)& (0+255),b
  1178                           
  1179                           ; BSR set to: 0
  1180                           ;CoilDet-V0.0.C: 1657: DT_data1[3] = det_timer_average[7];
  1181  0006AA  C00F  F0CD         	movff	_det_timer_average+14,_DT_data1+3
  1182                           
  1183                           ; BSR set to: 0
  1184  0006AE  2A4D               	incf	main@j,f,c
  1185                           
  1186                           ; BSR set to: 0
  1187  0006B0  0E07               	movlw	7
  1188  0006B2  644D               	cpfsgt	main@j,c
  1189  0006B4  D7EA               	goto	l3079
  1190  0006B6  D7A8               	goto	l3023
  1191                           tblptru	equ	0xFF8
  1192                           tblptrh	equ	0xFF7
  1193                           tblptrl	equ	0xFF6
  1194                           tablat	equ	0xFF5
  1195                           prodl	equ	0xFF3
  1196                           intcon	equ	0xFF2
  1197                           postinc0	equ	0xFEE
  1198                           wreg	equ	0xFE8
  1199                           indf1	equ	0xFE7
  1200                           postinc1	equ	0xFE6
  1201                           postdec1	equ	0xFE5
  1202                           fsr1h	equ	0xFE2
  1203                           fsr1l	equ	0xFE1
  1204                           indf2	equ	0xFDF
  1205                           postinc2	equ	0xFDE
  1206                           postdec2	equ	0xFDD
  1207                           fsr2h	equ	0xFDA
  1208                           fsr2l	equ	0xFD9
  1209                           status	equ	0xFD8
  1210                           
  1211 ;; *************** function _Ch_Timeout_Processing *****************
  1212 ;; Defined at:
  1213 ;;		line 173 in file "E:\working\coil\coil-v0.0-14\CoilDet\CoilDet-V0.0.C"
  1214 ;; Parameters:    Size  Location     Type
  1215 ;;		None
  1216 ;; Auto vars:     Size  Location     Type
  1217 ;;  i               1   21[COMRAM] unsigned char 
  1218 ;;  j               1   20[COMRAM] unsigned char 
  1219 ;; Return value:  Size  Location     Type
  1220 ;;		None               void
  1221 ;; Registers used:
  1222 ;;		wreg, fsr2l, fsr2h, status,2, status,0, prodl, prodh, cstack
  1223 ;; Tracked objects:
  1224 ;;		On entry : 0/F
  1225 ;;		On exit  : 0/0
  1226 ;;		Unchanged: FFFFFFF0/0
  1227 ;; Data sizes:     COMRAM   BANK0   BANK1   BANK2   BANK3   BANK4   BANK5   BANK6   BANK7   BANK8   BANK9  BANK10  BANK1
      +1  BANK12  BANK13  BANK14
  1228 ;;      Params:         0       0       0       0       0       0       0       0       0       0       0       0       
      +0       0       0       0
  1229 ;;      Locals:         2       0       0       0       0       0       0       0       0       0       0       0       
      +0       0       0       0
  1230 ;;      Temps:          2       0       0       0       0       0       0       0       0       0       0       0       
      +0       0       0       0
  1231 ;;      Totals:         4       0       0       0       0       0       0       0       0       0       0       0       
      +0       0       0       0
  1232 ;;Total ram usage:        4 bytes
  1233 ;; Hardware stack levels used:    1
  1234 ;; Hardware stack levels required when called:    3
  1235 ;; This function calls:
  1236 ;;		_DetBufWrite
  1237 ;;		_GetTimeAverage
  1238 ;; This function is called by:
  1239 ;;		_main
  1240 ;; This function uses a non-reentrant model
  1241 ;;
  1242                           
  1243                           	psect	text1
  1244  0008F0                     __ptext1:
  1245                           	opt stack 0
  1246  0008F0                     __end_of_main:
  1247                           	opt stack 0
  1248  0008F0                     _Ch_Timeout_Processing:
  1249                           	opt stack 27
  1250                           
  1251                           ;CoilDet-V0.0.C: 174: unsigned char i=0,j=0;
  1252                           
  1253                           ; BSR set to: 0
  1254  0008F0  6A3D               	clrf	Ch_Timeout_Processing@i,c
  1255                           
  1256                           ;CoilDet-V0.0.C: 176: for(i=0;i<8;i++)
  1257  0008F2  6A3D               	clrf	Ch_Timeout_Processing@i,c
  1258  0008F4                     l2341:
  1259                           
  1260                           ;CoilDet-V0.0.C: 177: {
  1261                           ;CoilDet-V0.0.C: 178: if(det_result_output & (0x01<<i))
  1262  0008F4  C03D  F03A         	movff	Ch_Timeout_Processing@i,??_Ch_Timeout_Processing
  1263  0008F8  0E01               	movlw	1
  1264  0008FA  6E3B               	movwf	(??_Ch_Timeout_Processing+1)& (0+255),c
  1265  0008FC  2A3A               	incf	??_Ch_Timeout_Processing,f,c
  1266  0008FE  D002               	goto	u1404
  1267  000900                     u1405:
  1268  000900  90D8               	bcf	status,0,c
  1269  000902  363B               	rlcf	??_Ch_Timeout_Processing+1,f,c
  1270  000904                     u1404:
  1271  000904  2E3A               	decfsz	??_Ch_Timeout_Processing,f,c
  1272  000906  D7FC               	goto	u1405
  1273  000908  503B               	movf	??_Ch_Timeout_Processing+1,w,c
  1274  00090A  1420               	andwf	_det_result_output,w,c
  1275  00090C  E037               	bz	l2361
  1276                           
  1277                           ;CoilDet-V0.0.C: 179: {
  1278                           ;CoilDet-V0.0.C: 181: ch_timeout_timer[i]++;
  1279  00090E  503D               	movf	Ch_Timeout_Processing@i,w,c
  1280  000910  0D02               	mullw	2
  1281  000912  50F3               	movf	prodl,w,c
  1282  000914  0100               	movlb	0	; () banked
  1283  000916  0F60               	addlw	low _ch_timeout_timer
  1284  000918  6ED9               	movwf	fsr2l,c
  1285  00091A  6ADA               	clrf	fsr2h,c
  1286  00091C  2ADE               	incf	postinc2,f,c
  1287  00091E  0E00               	movlw	0
  1288  000920  22DD               	addwfc	postdec2,f,c
  1289                           
  1290                           ;CoilDet-V0.0.C: 182: if(ch_timeout_timer[i]>=300)
  1291  000922  D831               	call	PL18	;call to abstracted procedure
  1292  000924  CFDE F03A          	movff	postinc2,??_Ch_Timeout_Processing
  1293  000928  CFDD F03B          	movff	postdec2,??_Ch_Timeout_Processing+1
  1294  00092C  0E2C               	movlw	44
  1295  00092E  5C3A               	subwf	??_Ch_Timeout_Processing,w,c
  1296  000930  0E01               	movlw	1
  1297  000932  583B               	subwfb	??_Ch_Timeout_Processing+1,w,c
  1298  000934  E323               	bnc	l2361
  1299                           
  1300                           ; BSR set to: 0
  1301                           ;CoilDet-V0.0.C: 183: {
  1302                           ;CoilDet-V0.0.C: 184: ch_timeout_timer[i] =0;
  1303  000936  D827               	call	PL18	;call to abstracted procedure
  1304  000938  6ADE               	clrf	postinc2,c
  1305  00093A  6ADD               	clrf	postdec2,c
  1306                           
  1307                           ; BSR set to: 0
  1308                           ;CoilDet-V0.0.C: 185: for(j=0;j<10;j++)
  1309  00093C  6A3C               	clrf	Ch_Timeout_Processing@j,c
  1310  00093E                     l2353:
  1311                           
  1312                           ; BSR set to: 0
  1313                           ;CoilDet-V0.0.C: 186: {
  1314                           ;CoilDet-V0.0.C: 188: DetBufWrite(det_timer_conter[i],i);
  1315  00093E  503D               	movf	Ch_Timeout_Processing@i,w,c
  1316  000940  0D02               	mullw	2
  1317  000942  50F3               	movf	prodl,w,c
  1318  000944  0F90               	addlw	low _det_timer_conter
  1319  000946  6ED9               	movwf	fsr2l,c
  1320  000948  6ADA               	clrf	fsr2h,c
  1321  00094A  CFDE F028          	movff	postinc2,?_DetBufWrite
  1322  00094E  CFDD F029          	movff	postdec2,?_DetBufWrite+1
  1323  000952  C03D  F02A         	movff	Ch_Timeout_Processing@i,?_DetBufWrite+2
  1324  000956  ECA0  F006         	call	_DetBufWrite	;wreg free
  1325                           
  1326                           ; BSR set to: 0
  1327  00095A  2A3C               	incf	Ch_Timeout_Processing@j,f,c
  1328                           
  1329                           ; BSR set to: 0
  1330  00095C  0E09               	movlw	9
  1331  00095E  643C               	cpfsgt	Ch_Timeout_Processing@j,c
  1332  000960  D7EE               	goto	l2353
  1333                           
  1334                           ; BSR set to: 0
  1335                           ;CoilDet-V0.0.C: 190: }
  1336                           ;CoilDet-V0.0.C: 192: det_timer_average[i] = GetTimeAverage(i);
  1337  000962  503D               	movf	Ch_Timeout_Processing@i,w,c
  1338  000964  EC7D  F001         	call	_GetTimeAverage
  1339  000968  503D               	movf	Ch_Timeout_Processing@i,w,c
  1340  00096A  0D02               	mullw	2
  1341  00096C  50F3               	movf	prodl,w,c
  1342  00096E  0F01               	addlw	low _det_timer_average
  1343  000970  6ED9               	movwf	fsr2l,c
  1344  000972  6ADA               	clrf	fsr2h,c
  1345  000974  C028  FFDE         	movff	?_GetTimeAverage,postinc2
  1346  000978  C029  FFDD         	movff	?_GetTimeAverage+1,postdec2
  1347  00097C                     l2361:
  1348  00097C  2A3D               	incf	Ch_Timeout_Processing@i,f,c
  1349  00097E  0E07               	movlw	7
  1350  000980  643D               	cpfsgt	Ch_Timeout_Processing@i,c
  1351  000982  D7B8               	goto	l2341
  1352  000984  0C07               	retlw	7
  1353  000986                     __end_of_Ch_Timeout_Processing:
  1354                           	opt stack 0
  1355  000986                     PL18:
  1356  000986  503D               	movf	Ch_Timeout_Processing@i,w,c
  1357  000988  0D02               	mullw	2
  1358  00098A  50F3               	movf	prodl,w,c
  1359  00098C  0F60               	addlw	low _ch_timeout_timer
  1360  00098E  6ED9               	movwf	fsr2l,c
  1361  000990  6ADA               	clrf	fsr2h,c
  1362  000992  0012               	return	
  1363                           tblptru	equ	0xFF8
  1364                           tblptrh	equ	0xFF7
  1365                           tblptrl	equ	0xFF6
  1366                           tablat	equ	0xFF5
  1367                           prodl	equ	0xFF3
  1368                           intcon	equ	0xFF2
  1369                           postinc0	equ	0xFEE
  1370                           wreg	equ	0xFE8
  1371                           indf1	equ	0xFE7
  1372                           postinc1	equ	0xFE6
  1373                           postdec1	equ	0xFE5
  1374                           fsr1h	equ	0xFE2
  1375                           fsr1l	equ	0xFE1
  1376                           indf2	equ	0xFDF
  1377                           postinc2	equ	0xFDE
  1378                           postdec2	equ	0xFDD
  1379                           fsr2h	equ	0xFDA
  1380                           fsr2l	equ	0xFD9
  1381                           status	equ	0xFD8
  1382                           
  1383 ;; *************** function _DetBufWrite *****************
  1384 ;; Defined at:
  1385 ;;		line 935 in file "E:\working\coil\coil-v0.0-14\CoilDet\CoilDet-V0.0.C"
  1386 ;; Parameters:    Size  Location     Type
  1387 ;;  val             2    0[COMRAM] unsigned int 
  1388 ;;  ch              1    2[COMRAM] unsigned char 
  1389 ;; Auto vars:     Size  Location     Type
  1390 ;;		None
  1391 ;; Return value:  Size  Location     Type
  1392 ;;		None               void
  1393 ;; Registers used:
  1394 ;;		wreg, fsr2l, fsr2h, status,2, status,0, prodl, prodh
  1395 ;; Tracked objects:
  1396 ;;		On entry : F/0
  1397 ;;		On exit  : F/0
  1398 ;;		Unchanged: FFFFFFF0/0
  1399 ;; Data sizes:     COMRAM   BANK0   BANK1   BANK2   BANK3   BANK4   BANK5   BANK6   BANK7   BANK8   BANK9  BANK10  BANK1
      +1  BANK12  BANK13  BANK14
  1400 ;;      Params:         3       0       0       0       0       0       0       0       0       0       0       0       
      +0       0       0       0
  1401 ;;      Locals:         0       0       0       0       0       0       0       0       0       0       0       0       
      +0       0       0       0
  1402 ;;      Temps:          2       0       0       0       0       0       0       0       0       0       0       0       
      +0       0       0       0
  1403 ;;      Totals:         5       0       0       0       0       0       0       0       0       0       0       0       
      +0       0       0       0
  1404 ;;Total ram usage:        5 bytes
  1405 ;; Hardware stack levels used:    1
  1406 ;; Hardware stack levels required when called:    2
  1407 ;; This function calls:
  1408 ;;		Nothing
  1409 ;; This function is called by:
  1410 ;;		_Ch_Timeout_Processing
  1411 ;;		_main
  1412 ;; This function uses a non-reentrant model
  1413 ;;
  1414                           
  1415                           	psect	text2
  1416  000D40                     __ptext2:
  1417                           	opt stack 0
  1418  000D40                     _DetBufWrite:
  1419                           	opt stack 28
  1420                           
  1421                           ; BSR set to: 0
  1422                           ;CoilDet-V0.0.C: 936: det_timer_counter_buf[ch][det_buf_p[ch]] = val;
  1423  000D40  502A               	movf	DetBufWrite@ch,w,c
  1424  000D42  0D14               	mullw	20
  1425  000D44  0E00               	movlw	low _det_timer_counter_buf
  1426  000D46  6E2B               	movwf	??_DetBufWrite& (0+255),c
  1427  000D48  0E01               	movlw	high _det_timer_counter_buf
  1428  000D4A  6E2C               	movwf	(??_DetBufWrite+1)& (0+255),c
  1429  000D4C  50F3               	movf	prodl,w,c
  1430  000D4E  262B               	addwf	??_DetBufWrite,f,c
  1431  000D50  0E00               	movlw	0
  1432  000D52  222C               	addwfc	??_DetBufWrite+1,f,c
  1433  000D54  502A               	movf	DetBufWrite@ch,w,c
  1434  000D56  0FA0               	addlw	low _det_buf_p
  1435  000D58  6ED9               	movwf	fsr2l,c
  1436  000D5A  6ADA               	clrf	fsr2h,c
  1437  000D5C  50DF               	movf	indf2,w,c
  1438  000D5E  0D02               	mullw	2
  1439  000D60  50F3               	movf	prodl,w,c
  1440  000D62  242B               	addwf	??_DetBufWrite,w,c
  1441  000D64  6ED9               	movwf	fsr2l,c
  1442  000D66  0E00               	movlw	0
  1443  000D68  202C               	addwfc	??_DetBufWrite+1,w,c
  1444  000D6A  6EDA               	movwf	fsr2h,c
  1445  000D6C  C028  FFDE         	movff	DetBufWrite@val,postinc2
  1446  000D70  C029  FFDD         	movff	DetBufWrite@val+1,postdec2
  1447                           
  1448                           ; BSR set to: 0
  1449                           ;CoilDet-V0.0.C: 937: det_buf_p[ch]++;
  1450  000D74  502A               	movf	DetBufWrite@ch,w,c
  1451  000D76  0FA0               	addlw	low _det_buf_p
  1452  000D78  6ED9               	movwf	fsr2l,c
  1453  000D7A  6ADA               	clrf	fsr2h,c
  1454  000D7C  2ADF               	incf	indf2,f,c
  1455                           
  1456                           ; BSR set to: 0
  1457                           ;CoilDet-V0.0.C: 939: if(det_buf_p[ch]>=10)
  1458  000D7E  502A               	movf	DetBufWrite@ch,w,c
  1459  000D80  0FA0               	addlw	low _det_buf_p
  1460  000D82  6ED9               	movwf	fsr2l,c
  1461  000D84  6ADA               	clrf	fsr2h,c
  1462  000D86  0E09               	movlw	9
  1463  000D88  64DF               	cpfsgt	indf2,c
  1464  000D8A  0C09               	retlw	9
  1465                           
  1466                           ; BSR set to: 0
  1467                           ;CoilDet-V0.0.C: 940: {
  1468                           ;CoilDet-V0.0.C: 941: det_buf_p[ch] = 0;
  1469  000D8C  502A               	movf	DetBufWrite@ch,w,c
  1470  000D8E  0FA0               	addlw	low _det_buf_p
  1471  000D90  6ED9               	movwf	fsr2l,c
  1472  000D92  6ADA               	clrf	fsr2h,c
  1473  000D94  0E00               	movlw	0
  1474  000D96  6EDF               	movwf	indf2,c
  1475                           
  1476                           ; BSR set to: 0
  1477  000D98  0C00               	retlw	0
  1478  000D9A                     __end_of_DetBufWrite:
  1479                           	opt stack 0
  1480                           tblptru	equ	0xFF8
  1481                           tblptrh	equ	0xFF7
  1482                           tblptrl	equ	0xFF6
  1483                           tablat	equ	0xFF5
  1484                           prodl	equ	0xFF3
  1485                           intcon	equ	0xFF2
  1486                           postinc0	equ	0xFEE
  1487                           wreg	equ	0xFE8
  1488                           indf1	equ	0xFE7
  1489                           postinc1	equ	0xFE6
  1490                           postdec1	equ	0xFE5
  1491                           fsr1h	equ	0xFE2
  1492                           fsr1l	equ	0xFE1
  1493                           indf2	equ	0xFDF
  1494                           postinc2	equ	0xFDE
  1495                           postdec2	equ	0xFDD
  1496                           fsr2h	equ	0xFDA
  1497                           fsr2l	equ	0xFD9
  1498                           status	equ	0xFD8
  1499                           
  1500 ;; *************** function _PORTInit *****************
  1501 ;; Defined at:
  1502 ;;		line 403 in file "E:\working\coil\coil-v0.0-14\CoilDet\CoilDet-V0.0.C"
  1503 ;; Parameters:    Size  Location     Type
  1504 ;;		None
  1505 ;; Auto vars:     Size  Location     Type
  1506 ;;		None
  1507 ;; Return value:  Size  Location     Type
  1508 ;;		None               void
  1509 ;; Registers used:
  1510 ;;		status,2, status,0
  1511 ;; Tracked objects:
  1512 ;;		On entry : 0/0
  1513 ;;		On exit  : F/F
  1514 ;;		Unchanged: FFFFFFF0/0
  1515 ;; Data sizes:     COMRAM   BANK0   BANK1   BANK2   BANK3   BANK4   BANK5   BANK6   BANK7   BANK8   BANK9  BANK10  BANK1
      +1  BANK12  BANK13  BANK14
  1516 ;;      Params:         0       0       0       0       0       0       0       0       0       0       0       0       
      +0       0       0       0
  1517 ;;      Locals:         0       0       0       0       0       0       0       0       0       0       0       0       
      +0       0       0       0
  1518 ;;      Temps:          0       0       0       0       0       0       0       0       0       0       0       0       
      +0       0       0       0
  1519 ;;      Totals:         0       0       0       0       0       0       0       0       0       0       0       0       
      +0       0       0       0
  1520 ;;Total ram usage:        0 bytes
  1521 ;; Hardware stack levels used:    1
  1522 ;; Hardware stack levels required when called:    2
  1523 ;; This function calls:
  1524 ;;		Nothing
  1525 ;; This function is called by:
  1526 ;;		_main
  1527 ;; This function uses a non-reentrant model
  1528 ;;
  1529                           
  1530                           	psect	text3
  1531  000EBC                     __ptext3:
  1532                           	opt stack 0
  1533  000EBC                     _PORTInit:
  1534                           	opt stack 28
  1535                           
  1536                           ;CoilDet-V0.0.C: 404: ANCON1 = 0X00;
  1537                           
  1538                           ; BSR set to: 0
  1539  000EBC  010F               	movlb	15	; () banked
  1540  000EBE  6B5C               	clrf	92,b	;volatile
  1541                           
  1542                           ;CoilDet-V0.0.C: 405: ANCON0 = 0X00;
  1543  000EC0  6B5D               	clrf	93,b	;volatile
  1544                           
  1545                           ;CoilDet-V0.0.C: 408: RBIE=0;
  1546  000EC2  96F2               	bcf	intcon,3,c	;volatile
  1547                           
  1548                           ;CoilDet-V0.0.C: 411: TRISA = 0x00;
  1549  000EC4  6A92               	clrf	3986,c	;volatile
  1550                           
  1551                           ;CoilDet-V0.0.C: 412: TRISB = 0x00;
  1552  000EC6  6A93               	clrf	3987,c	;volatile
  1553                           
  1554                           ;CoilDet-V0.0.C: 413: TRISC = 0x00;
  1555  000EC8  6A94               	clrf	3988,c	;volatile
  1556                           
  1557                           ;CoilDet-V0.0.C: 414: TRISD = 0x00;
  1558  000ECA  6A95               	clrf	3989,c	;volatile
  1559                           
  1560                           ;CoilDet-V0.0.C: 415: TRISE = 0x00;
  1561  000ECC  6A96               	clrf	3990,c	;volatile
  1562                           
  1563                           ;CoilDet-V0.0.C: 417: PORTD = 0Xff;
  1564  000ECE  6883               	setf	3971,c	;volatile
  1565                           
  1566                           ;CoilDet-V0.0.C: 418: RC0 = 1;
  1567  000ED0  8082               	bsf	3970,0,c	;volatile
  1568                           
  1569                           ;CoilDet-V0.0.C: 419: RC1 = 1;
  1570  000ED2  8282               	bsf	3970,1,c	;volatile
  1571                           
  1572                           ;CoilDet-V0.0.C: 420: RC2 = 1;
  1573  000ED4  8482               	bsf	3970,2,c	;volatile
  1574                           
  1575                           ;CoilDet-V0.0.C: 421: RC6 = 1;
  1576  000ED6  8C82               	bsf	3970,6,c	;volatile
  1577                           
  1578                           ;CoilDet-V0.0.C: 422: RC7 = 1;
  1579  000ED8  8E82               	bsf	3970,7,c	;volatile
  1580                           
  1581                           ;CoilDet-V0.0.C: 423: RA1 = 1;
  1582  000EDA  8280               	bsf	3968,1,c	;volatile
  1583                           
  1584                           ;CoilDet-V0.0.C: 424: RA2 = 1;
  1585  000EDC  8480               	bsf	3968,2,c	;volatile
  1586                           
  1587                           ;CoilDet-V0.0.C: 425: RA3 = 1;
  1588  000EDE  8680               	bsf	3968,3,c	;volatile
  1589                           
  1590                           ; BSR set to: 15
  1591                           ;CoilDet-V0.0.C: 428: TRISB |= 0x20;
  1592  000EE0  8A93               	bsf	3987,5,c	;volatile
  1593                           
  1594                           ;CoilDet-V0.0.C: 431: TRISC |= 0x08;
  1595  000EE2  8694               	bsf	3988,3,c	;volatile
  1596                           
  1597                           ;CoilDet-V0.0.C: 432: TRISC |= 0x10;
  1598  000EE4  8894               	bsf	3988,4,c	;volatile
  1599                           
  1600                           ;CoilDet-V0.0.C: 433: TRISC |= 0x20;
  1601  000EE6  8A94               	bsf	3988,5,c	;volatile
  1602                           
  1603                           ; BSR set to: 15
  1604                           ;CoilDet-V0.0.C: 435: RC3 = 1;
  1605  000EE8  8682               	bsf	3970,3,c	;volatile
  1606                           
  1607                           ; BSR set to: 15
  1608                           ;CoilDet-V0.0.C: 436: RC5 = 1;
  1609  000EEA  8A82               	bsf	3970,5,c	;volatile
  1610                           
  1611                           ; BSR set to: 15
  1612                           ;CoilDet-V0.0.C: 437: RC4 = 1;
  1613  000EEC  8882               	bsf	3970,4,c	;volatile
  1614                           
  1615                           ;CoilDet-V0.0.C: 439: TRISA |= 0x20;
  1616  000EEE  8A92               	bsf	3986,5,c	;volatile
  1617                           
  1618                           ; BSR set to: 15
  1619  000EF0  0012               	return	
  1620  000EF2                     __end_of_PORTInit:
  1621                           	opt stack 0
  1622                           tblptru	equ	0xFF8
  1623                           tblptrh	equ	0xFF7
  1624                           tblptrl	equ	0xFF6
  1625                           tablat	equ	0xFF5
  1626                           prodl	equ	0xFF3
  1627                           intcon	equ	0xFF2
  1628                           postinc0	equ	0xFEE
  1629                           wreg	equ	0xFE8
  1630                           indf1	equ	0xFE7
  1631                           postinc1	equ	0xFE6
  1632                           postdec1	equ	0xFE5
  1633                           fsr1h	equ	0xFE2
  1634                           fsr1l	equ	0xFE1
  1635                           indf2	equ	0xFDF
  1636                           postinc2	equ	0xFDE
  1637                           postdec2	equ	0xFDD
  1638                           fsr2h	equ	0xFDA
  1639                           fsr2l	equ	0xFD9
  1640                           status	equ	0xFD8
  1641                           
  1642 ;; *************** function _IntManager *****************
  1643 ;; Defined at:
  1644 ;;		line 445 in file "E:\working\coil\coil-v0.0-14\CoilDet\CoilDet-V0.0.C"
  1645 ;; Parameters:    Size  Location     Type
  1646 ;;		None
  1647 ;; Auto vars:     Size  Location     Type
  1648 ;;		None
  1649 ;; Return value:  Size  Location     Type
  1650 ;;		None               void
  1651 ;; Registers used:
  1652 ;;		wreg, status,2, status,0
  1653 ;; Tracked objects:
  1654 ;;		On entry : F/F
  1655 ;;		On exit  : F/F
  1656 ;;		Unchanged: FFFFFFF0/0
  1657 ;; Data sizes:     COMRAM   BANK0   BANK1   BANK2   BANK3   BANK4   BANK5   BANK6   BANK7   BANK8   BANK9  BANK10  BANK1
      +1  BANK12  BANK13  BANK14
  1658 ;;      Params:         0       0       0       0       0       0       0       0       0       0       0       0       
      +0       0       0       0
  1659 ;;      Locals:         0       0       0       0       0       0       0       0       0       0       0       0       
      +0       0       0       0
  1660 ;;      Temps:          0       0       0       0       0       0       0       0       0       0       0       0       
      +0       0       0       0
  1661 ;;      Totals:         0       0       0       0       0       0       0       0       0       0       0       0       
      +0       0       0       0
  1662 ;;Total ram usage:        0 bytes
  1663 ;; Hardware stack levels used:    1
  1664 ;; Hardware stack levels required when called:    2
  1665 ;; This function calls:
  1666 ;;		Nothing
  1667 ;; This function is called by:
  1668 ;;		_main
  1669 ;; This function uses a non-reentrant model
  1670 ;;
  1671                           
  1672                           	psect	text4
  1673  000FCC                     __ptext4:
  1674                           	opt stack 0
  1675  000FCC                     _IntManager:
  1676                           	opt stack 28
  1677                           
  1678                           ; BSR set to: 15
  1679                           ;CoilDet-V0.0.C: 447: INTCON |= 0xc0;
  1680                           
  1681                           ; BSR set to: 15
  1682  000FCC  0EC0               	movlw	192
  1683  000FCE  12F2               	iorwf	intcon,f,c	;volatile
  1684                           
  1685                           ; BSR set to: 15
  1686                           ;CoilDet-V0.0.C: 451: TMR0IE = 1;
  1687  000FD0  8AF2               	bsf	intcon,5,c	;volatile
  1688                           
  1689                           ; BSR set to: 15
  1690                           ;CoilDet-V0.0.C: 452: TMR0IF = 0;
  1691  000FD2  94F2               	bcf	intcon,2,c	;volatile
  1692                           
  1693                           ; BSR set to: 15
  1694                           ;CoilDet-V0.0.C: 453: T08BIT = 0;
  1695  000FD4  9CD5               	bcf	4053,6,c	;volatile
  1696                           
  1697                           ; BSR set to: 15
  1698                           ;CoilDet-V0.0.C: 454: T0CS = 0;
  1699  000FD6  9AD5               	bcf	4053,5,c	;volatile
  1700                           
  1701                           ; BSR set to: 15
  1702                           ;CoilDet-V0.0.C: 456: TMR0H = 0xd8;
  1703  000FD8  0ED8               	movlw	216
  1704  000FDA  6ED7               	movwf	4055,c	;volatile
  1705                           
  1706                           ; BSR set to: 15
  1707                           ;CoilDet-V0.0.C: 457: TMR0L = 0xef;
  1708  000FDC  0EEF               	movlw	239
  1709  000FDE  6ED6               	movwf	4054,c	;volatile
  1710                           
  1711                           ; BSR set to: 15
  1712                           ;CoilDet-V0.0.C: 459: TMR0ON = 1;
  1713  000FE0  8ED5               	bsf	4053,7,c	;volatile
  1714                           
  1715                           ; BSR set to: 15
  1716                           ;CoilDet-V0.0.C: 474: T3CON = 0x84;
  1717  000FE2  0E84               	movlw	132
  1718  000FE4  6EB1               	movwf	4017,c	;volatile
  1719                           
  1720                           ; BSR set to: 15
  1721  000FE6  0C84               	retlw	132
  1722  000FE8                     __end_of_IntManager:
  1723                           	opt stack 0
  1724                           tblptru	equ	0xFF8
  1725                           tblptrh	equ	0xFF7
  1726                           tblptrl	equ	0xFF6
  1727                           tablat	equ	0xFF5
  1728                           prodl	equ	0xFF3
  1729                           intcon	equ	0xFF2
  1730                           postinc0	equ	0xFEE
  1731                           wreg	equ	0xFE8
  1732                           indf1	equ	0xFE7
  1733                           postinc1	equ	0xFE6
  1734                           postdec1	equ	0xFE5
  1735                           fsr1h	equ	0xFE2
  1736                           fsr1l	equ	0xFE1
  1737                           indf2	equ	0xFDF
  1738                           postinc2	equ	0xFDE
  1739                           postdec2	equ	0xFDD
  1740                           fsr2h	equ	0xFDA
  1741                           fsr2l	equ	0xFD9
  1742                           status	equ	0xFD8
  1743                           
  1744 ;; *************** function _SetConfig *****************
  1745 ;; Defined at:
  1746 ;;		line 592 in file "E:\working\coil\coil-v0.0-14\CoilDet\CoilDet-V0.0.C"
  1747 ;; Parameters:    Size  Location     Type
  1748 ;;		None
  1749 ;; Auto vars:     Size  Location     Type
  1750 ;;  EEPromData     22    9[COMRAM] unsigned char [22]
  1751 ;;  i               1   31[COMRAM] unsigned char 
  1752 ;; Return value:  Size  Location     Type
  1753 ;;		None               void
  1754 ;; Registers used:
  1755 ;;		wreg, fsr2l, fsr2h, status,2, status,0, cstack
  1756 ;; Tracked objects:
  1757 ;;		On entry : F/F
  1758 ;;		On exit  : 0/0
  1759 ;;		Unchanged: 0/0
  1760 ;; Data sizes:     COMRAM   BANK0   BANK1   BANK2   BANK3   BANK4   BANK5   BANK6   BANK7   BANK8   BANK9  BANK10  BANK1
      +1  BANK12  BANK13  BANK14
  1761 ;;      Params:         0       0       0       0       0       0       0       0       0       0       0       0       
      +0       0       0       0
  1762 ;;      Locals:        23       0       0       0       0       0       0       0       0       0       0       0       
      +0       0       0       0
  1763 ;;      Temps:          1       0       0       0       0       0       0       0       0       0       0       0       
      +0       0       0       0
  1764 ;;      Totals:        24       0       0       0       0       0       0       0       0       0       0       0       
      +0       0       0       0
  1765 ;;Total ram usage:       24 bytes
  1766 ;; Hardware stack levels used:    1
  1767 ;; Hardware stack levels required when called:    4
  1768 ;; This function calls:
  1769 ;;		_EEPROMRead
  1770 ;;		_SetFreq
  1771 ;; This function is called by:
  1772 ;;		_main
  1773 ;; This function uses a non-reentrant model
  1774 ;;
  1775                           
  1776                           	psect	text5
  1777  000780                     __ptext5:
  1778                           	opt stack 0
  1779  000780                     _SetConfig:
  1780                           	opt stack 26
  1781                           
  1782                           ; BSR set to: 15
  1783                           ;CoilDet-V0.0.C: 593: unsigned char EEPromData[4+16+2];
  1784                           ;CoilDet-V0.0.C: 594: unsigned char i = 0x00;
  1785                           
  1786                           ; BSR set to: 15
  1787  000780  6A47               	clrf	SetConfig@i,c
  1788                           
  1789                           ;CoilDet-V0.0.C: 601: for(i=0;i<(4+16+2);i++)
  1790  000782  6A47               	clrf	SetConfig@i,c
  1791  000784                     l2515:
  1792                           
  1793                           ; BSR set to: 15
  1794                           ;CoilDet-V0.0.C: 602: {
  1795                           ;CoilDet-V0.0.C: 603: EEPromData[i] = 0x00;
  1796  000784  5047               	movf	SetConfig@i,w,c
  1797  000786  0F31               	addlw	low SetConfig@EEPromData
  1798  000788  6ED9               	movwf	fsr2l,c
  1799  00078A  6ADA               	clrf	fsr2h,c
  1800  00078C  6ADF               	clrf	indf2,c
  1801                           
  1802                           ; BSR set to: 15
  1803  00078E  2A47               	incf	SetConfig@i,f,c
  1804                           
  1805                           ; BSR set to: 15
  1806  000790  0E15               	movlw	21
  1807  000792  6447               	cpfsgt	SetConfig@i,c
  1808  000794  D7F7               	goto	l2515
  1809                           
  1810                           ; BSR set to: 15
  1811                           ;CoilDet-V0.0.C: 604: }
  1812                           ;CoilDet-V0.0.C: 607: eeprom_addr = 0x0005;
  1813  000796  6A5A               	clrf	_eeprom_addr+1,c
  1814  000798  0E05               	movlw	5
  1815  00079A  6E59               	movwf	_eeprom_addr,c
  1816                           
  1817                           ;CoilDet-V0.0.C: 608: eeprom_num = 4+16+2;
  1818  00079C  0E16               	movlw	22
  1819  00079E  6E5B               	movwf	_eeprom_num,c
  1820                           
  1821                           ; BSR set to: 15
  1822                           ;CoilDet-V0.0.C: 609: EEPROMRead(&eeprom_addr,&eeprom_num,EEPromData);
  1823  0007A0  0E5B               	movlw	low _eeprom_num
  1824  0007A2  6E28               	movwf	?_EEPROMRead,c
  1825  0007A4  0E31               	movlw	low SetConfig@EEPromData
  1826  0007A6  6E29               	movwf	?_EEPROMRead+1,c
  1827  0007A8  0E00               	movlw	high SetConfig@EEPromData
  1828  0007AA  6E2A               	movwf	?_EEPROMRead+2,c
  1829  0007AC  0E0F               	movlw	15
  1830  0007AE  6E2A               	movwf	?_EEPROMRead+2,c
  1831  0007B0  0E5F               	movlw	__accesstop+-1
  1832  0007B2  6429               	cpfsgt	?_EEPROMRead+1,c
  1833  0007B4  6A2A               	clrf	?_EEPROMRead+2,c
  1834  0007B6  0E59               	movlw	_eeprom_addr& (0+255)
  1835  0007B8  EC72  F006         	call	_EEPROMRead
  1836                           
  1837                           ;CoilDet-V0.0.C: 612: det_current_sens[0] = EEPromData[4 + EEPromData[0] & 0x0f];
  1838  0007BC  C031  F030         	movff	SetConfig@EEPromData,??_SetConfig
  1839  0007C0  0E04               	movlw	4
  1840  0007C2  2630               	addwf	??_SetConfig,f,c
  1841  0007C4  0E0F               	movlw	15
  1842  0007C6  D839               	call	PL8	;call to abstracted procedure
  1843  0007C8  6E4E               	movwf	_det_current_sens,c
  1844                           
  1845                           ;CoilDet-V0.0.C: 613: det_current_sens[1] = EEPromData[4 + EEPromData[0] & 0xf0];
  1846  0007CA  C031  F030         	movff	SetConfig@EEPromData,??_SetConfig
  1847  0007CE  0E04               	movlw	4
  1848  0007D0  2630               	addwf	??_SetConfig,f,c
  1849  0007D2  0EF0               	movlw	240
  1850  0007D4  D832               	call	PL8	;call to abstracted procedure
  1851  0007D6  6E4F               	movwf	_det_current_sens+1,c
  1852                           
  1853                           ;CoilDet-V0.0.C: 614: det_current_sens[2] = EEPromData[4 + EEPromData[1] & 0x0f];
  1854  0007D8  C032  F030         	movff	SetConfig@EEPromData+1,??_SetConfig
  1855  0007DC  0E04               	movlw	4
  1856  0007DE  2630               	addwf	??_SetConfig,f,c
  1857  0007E0  0E0F               	movlw	15
  1858  0007E2  D82B               	call	PL8	;call to abstracted procedure
  1859  0007E4  6E50               	movwf	_det_current_sens+2,c
  1860                           
  1861                           ;CoilDet-V0.0.C: 615: det_current_sens[3] = EEPromData[4 + EEPromData[1] & 0xf0];
  1862  0007E6  C032  F030         	movff	SetConfig@EEPromData+1,??_SetConfig
  1863  0007EA  0E04               	movlw	4
  1864  0007EC  2630               	addwf	??_SetConfig,f,c
  1865  0007EE  0EF0               	movlw	240
  1866  0007F0  D824               	call	PL8	;call to abstracted procedure
  1867  0007F2  6E51               	movwf	_det_current_sens+3,c
  1868                           
  1869                           ;CoilDet-V0.0.C: 616: det_current_sens[4] = EEPromData[4 + EEPromData[2] & 0x0f];
  1870  0007F4  C033  F030         	movff	SetConfig@EEPromData+2,??_SetConfig
  1871  0007F8  0E04               	movlw	4
  1872  0007FA  2630               	addwf	??_SetConfig,f,c
  1873  0007FC  0E0F               	movlw	15
  1874  0007FE  D81D               	call	PL8	;call to abstracted procedure
  1875  000800  6E52               	movwf	_det_current_sens+4,c
  1876                           
  1877                           ;CoilDet-V0.0.C: 617: det_current_sens[5] = EEPromData[4 + EEPromData[2] & 0xf0];
  1878  000802  C033  F030         	movff	SetConfig@EEPromData+2,??_SetConfig
  1879  000806  0E04               	movlw	4
  1880  000808  2630               	addwf	??_SetConfig,f,c
  1881  00080A  0EF0               	movlw	240
  1882  00080C  D816               	call	PL8	;call to abstracted procedure
  1883  00080E  6E53               	movwf	_det_current_sens+5,c
  1884                           
  1885                           ;CoilDet-V0.0.C: 618: det_current_sens[6] = EEPromData[4 + EEPromData[3] & 0x0f];
  1886  000810  C034  F030         	movff	SetConfig@EEPromData+3,??_SetConfig
  1887  000814  0E04               	movlw	4
  1888  000816  2630               	addwf	??_SetConfig,f,c
  1889  000818  0E0F               	movlw	15
  1890  00081A  D80F               	call	PL8	;call to abstracted procedure
  1891  00081C  6E54               	movwf	_det_current_sens+6,c
  1892                           
  1893                           ;CoilDet-V0.0.C: 619: det_current_sens[7] = EEPromData[4 + EEPromData[3] & 0xf0];
  1894  00081E  C034  F030         	movff	SetConfig@EEPromData+3,??_SetConfig
  1895  000822  0E04               	movlw	4
  1896  000824  2630               	addwf	??_SetConfig,f,c
  1897  000826  0EF0               	movlw	240
  1898  000828  D808               	call	PL8	;call to abstracted procedure
  1899  00082A  6E55               	movwf	_det_current_sens+7,c
  1900                           
  1901                           ;CoilDet-V0.0.C: 622: det_osc_cfg[0] = EEPromData[20];
  1902  00082C  C045  F026         	movff	SetConfig@EEPromData+20,_det_osc_cfg
  1903                           
  1904                           ;CoilDet-V0.0.C: 623: det_osc_cfg[1] = EEPromData[21];
  1905  000830  C046  F027         	movff	SetConfig@EEPromData+21,_det_osc_cfg+1
  1906                           
  1907                           ;CoilDet-V0.0.C: 624: SetFreq(det_osc_cfg);
  1908  000834  0E26               	movlw	_det_osc_cfg& (0+255)
  1909  000836  EF91  F007         	goto	_SetFreq
  1910  00083A                     __end_of_SetConfig:
  1911                           	opt stack 0
  1912  00083A                     PL8:
  1913  00083A  1630               	andwf	??_SetConfig,f,c
  1914  00083C  5030               	movf	??_SetConfig,w,c
  1915  00083E  0F31               	addlw	low SetConfig@EEPromData
  1916  000840  6ED9               	movwf	fsr2l,c
  1917  000842  6ADA               	clrf	fsr2h,c
  1918  000844  50DF               	movf	indf2,w,c
  1919  000846  0012               	return	
  1920                           tblptru	equ	0xFF8
  1921                           tblptrh	equ	0xFF7
  1922                           tblptrl	equ	0xFF6
  1923                           tablat	equ	0xFF5
  1924                           prodl	equ	0xFF3
  1925                           intcon	equ	0xFF2
  1926                           postinc0	equ	0xFEE
  1927                           wreg	equ	0xFE8
  1928                           indf1	equ	0xFE7
  1929                           postinc1	equ	0xFE6
  1930                           postdec1	equ	0xFE5
  1931                           fsr1h	equ	0xFE2
  1932                           fsr1l	equ	0xFE1
  1933                           indf2	equ	0xFDF
  1934                           postinc2	equ	0xFDE
  1935                           postdec2	equ	0xFDD
  1936                           fsr2h	equ	0xFDA
  1937                           fsr2l	equ	0xFD9
  1938                           status	equ	0xFD8
  1939                           
  1940 ;; *************** function _DetInit *****************
  1941 ;; Defined at:
  1942 ;;		line 909 in file "E:\working\coil\coil-v0.0-14\CoilDet\CoilDet-V0.0.C"
  1943 ;; Parameters:    Size  Location     Type
  1944 ;;		None
  1945 ;; Auto vars:     Size  Location     Type
  1946 ;;  i               1   21[COMRAM] unsigned char 
  1947 ;;  j               1   20[COMRAM] unsigned char 
  1948 ;; Return value:  Size  Location     Type
  1949 ;;		None               void
  1950 ;; Registers used:
  1951 ;;		wreg, fsr1l, fsr1h, fsr2l, fsr2h, status,2, status,0, prodl, prodh, cstack
  1952 ;; Tracked objects:
  1953 ;;		On entry : 0/F
  1954 ;;		On exit  : 0/0
  1955 ;;		Unchanged: FFFFFFF0/0
  1956 ;; Data sizes:     COMRAM   BANK0   BANK1   BANK2   BANK3   BANK4   BANK5   BANK6   BANK7   BANK8   BANK9  BANK10  BANK1
      +1  BANK12  BANK13  BANK14
  1957 ;;      Params:         0       0       0       0       0       0       0       0       0       0       0       0       
      +0       0       0       0
  1958 ;;      Locals:         2       0       0       0       0       0       0       0       0       0       0       0       
      +0       0       0       0
  1959 ;;      Temps:          2       0       0       0       0       0       0       0       0       0       0       0       
      +0       0       0       0
  1960 ;;      Totals:         4       0       0       0       0       0       0       0       0       0       0       0       
      +0       0       0       0
  1961 ;;Total ram usage:        4 bytes
  1962 ;; Hardware stack levels used:    1
  1963 ;; Hardware stack levels required when called:    3
  1964 ;; This function calls:
  1965 ;;		_delayus
  1966 ;;		_GetTimerCounter
  1967 ;;		_GetTimeAverage
  1968 ;; This function is called by:
  1969 ;;		_main
  1970 ;; This function uses a non-reentrant model
  1971 ;;
  1972                           
  1973                           	psect	text6
  1974  0004F8                     __ptext6:
  1975                           	opt stack 0
  1976  0004F8                     _DetInit:
  1977                           	opt stack 27
  1978                           
  1979                           ;CoilDet-V0.0.C: 910: unsigned char i = 0x00,j=0x00;
  1980  0004F8  6A3D               	clrf	DetInit@i,c
  1981                           
  1982                           ;CoilDet-V0.0.C: 912: for(i=0;i<8;i++)
  1983  0004FA  6A3D               	clrf	DetInit@i,c
  1984  0004FC                     l2667:
  1985  0004FC  0E07               	movlw	7
  1986  0004FE  643D               	cpfsgt	DetInit@i,c
  1987  000500  D001               	goto	l2671
  1988  000502  D057               	goto	l656
  1989  000504                     l2671:
  1990                           
  1991                           ;CoilDet-V0.0.C: 913: {
  1992                           ;CoilDet-V0.0.C: 914: if(det_enable & (0x01 <<i))
  1993  000504  D866               	call	PL19	;call to abstracted procedure
  1994  000506  D002               	goto	u1764
  1995  000508                     u1765:
  1996  000508  90D8               	bcf	status,0,c
  1997  00050A  363B               	rlcf	??_DetInit+1,f,c
  1998  00050C                     u1764:
  1999  00050C  2E3A               	decfsz	??_DetInit,f,c
  2000  00050E  D7FC               	goto	u1765
  2001  000510  503B               	movf	??_DetInit+1,w,c
  2002  000512  1458               	andwf	_det_enable,w,c
  2003  000514  E04C               	bz	l2697
  2004                           
  2005                           ;CoilDet-V0.0.C: 915: {
  2006                           ;CoilDet-V0.0.C: 916: PORTD = 0xFF;
  2007  000516  6883               	setf	3971,c	;volatile
  2008                           
  2009                           ;CoilDet-V0.0.C: 917: PORTD = (~(0x01 << i));
  2010  000518  D85C               	call	PL19	;call to abstracted procedure
  2011  00051A  D002               	goto	u1784
  2012  00051C                     u1785:
  2013  00051C  90D8               	bcf	status,0,c
  2014  00051E  363B               	rlcf	??_DetInit+1,f,c
  2015  000520                     u1784:
  2016  000520  2E3A               	decfsz	??_DetInit,f,c
  2017  000522  D7FC               	goto	u1785
  2018  000524  1C3B               	comf	??_DetInit+1,w,c
  2019  000526  6E83               	movwf	3971,c	;volatile
  2020                           
  2021                           ;CoilDet-V0.0.C: 919: delayus(100);
  2022  000528  6A29               	clrf	?_delayus+1,c
  2023  00052A  0E64               	movlw	100
  2024  00052C  6E28               	movwf	?_delayus,c
  2025  00052E  ECB8  F007         	call	_delayus	;wreg free
  2026                           
  2027                           ;CoilDet-V0.0.C: 920: det_timer_counter_buf[i][0] = GetTimerCounter(i);
  2028  000532  503D               	movf	DetInit@i,w,c
  2029  000534  ECCC  F005         	call	_GetTimerCounter
  2030  000538  503D               	movf	DetInit@i,w,c
  2031  00053A  0D14               	mullw	20
  2032  00053C  0101               	movlb	1	; () banked
  2033  00053E  D83B               	call	PL11	;call to abstracted procedure
  2034  000540  C028  FFDE         	movff	?_GetTimerCounter,postinc2
  2035  000544  C029  FFDD         	movff	?_GetTimerCounter+1,postdec2
  2036                           
  2037                           ; BSR set to: 1
  2038                           ;CoilDet-V0.0.C: 921: for(j=1;j<10;j++)
  2039  000548  0E01               	movlw	1
  2040  00054A  6E3C               	movwf	DetInit@j,c
  2041  00054C                     l2687:
  2042                           
  2043                           ; BSR set to: 1
  2044                           ;CoilDet-V0.0.C: 922: {
  2045                           ;CoilDet-V0.0.C: 923: det_timer_counter_buf[i][j] = det_timer_counter_buf[i][0];
  2046  00054C  503D               	movf	DetInit@i,w,c
  2047  00054E  0D14               	mullw	20
  2048  000550  D832               	call	PL11	;call to abstracted procedure
  2049  000552  503D               	movf	DetInit@i,w,c
  2050  000554  0D14               	mullw	20
  2051  000556  0E00               	movlw	low _det_timer_counter_buf
  2052  000558  6E3A               	movwf	??_DetInit& (0+255),c
  2053  00055A  0E01               	movlw	high _det_timer_counter_buf
  2054  00055C  6E3B               	movwf	(??_DetInit+1)& (0+255),c
  2055  00055E  50F3               	movf	prodl,w,c
  2056  000560  263A               	addwf	??_DetInit,f,c
  2057  000562  0E00               	movlw	0
  2058  000564  223B               	addwfc	??_DetInit+1,f,c
  2059  000566  503C               	movf	DetInit@j,w,c
  2060  000568  0D02               	mullw	2
  2061  00056A  50F3               	movf	prodl,w,c
  2062  00056C  243A               	addwf	??_DetInit,w,c
  2063  00056E  6EE1               	movwf	fsr1l,c
  2064  000570  0E00               	movlw	0
  2065  000572  203B               	addwfc	??_DetInit+1,w,c
  2066  000574  6EE2               	movwf	fsr1h,c
  2067  000576  CFDE FFE6          	movff	postinc2,postinc1
  2068  00057A  CFDD FFE5          	movff	postdec2,postdec1
  2069                           
  2070                           ; BSR set to: 1
  2071  00057E  2A3C               	incf	DetInit@j,f,c
  2072                           
  2073                           ; BSR set to: 1
  2074  000580  0E09               	movlw	9
  2075  000582  643C               	cpfsgt	DetInit@j,c
  2076  000584  D7E3               	goto	l2687
  2077                           
  2078                           ; BSR set to: 1
  2079                           ;CoilDet-V0.0.C: 924: }
  2080                           ;CoilDet-V0.0.C: 925: det_timer_average[i] = GetTimeAverage(i);
  2081  000586  503D               	movf	DetInit@i,w,c
  2082  000588  EC7D  F001         	call	_GetTimeAverage
  2083  00058C  D81B               	call	PL16	;call to abstracted procedure
  2084  00058E  C028  FFDE         	movff	?_GetTimeAverage,postinc2
  2085  000592  C029  FFDD         	movff	?_GetTimeAverage+1,postdec2
  2086                           
  2087                           ;CoilDet-V0.0.C: 926: det_timer_base[i] = det_timer_average[i];
  2088  000596  D816               	call	PL16	;call to abstracted procedure
  2089  000598  503D               	movf	DetInit@i,w,c
  2090  00059A  0D02               	mullw	2
  2091  00059C  50F3               	movf	prodl,w,c
  2092  00059E  0100               	movlb	0	; () banked
  2093  0005A0  0F80               	addlw	low _det_timer_base
  2094  0005A2  6EE1               	movwf	fsr1l,c
  2095  0005A4  6AE2               	clrf	fsr1h,c
  2096  0005A6  CFDE FFE6          	movff	postinc2,postinc1
  2097  0005AA  CFDD FFE5          	movff	postdec2,postdec1
  2098  0005AE                     l2697:
  2099  0005AE  2A3D               	incf	DetInit@i,f,c
  2100  0005B0  D7A5               	goto	l2667
  2101  0005B2                     l656:
  2102                           
  2103                           ;CoilDet-V0.0.C: 927: }
  2104                           ;CoilDet-V0.0.C: 928: }
  2105                           ;CoilDet-V0.0.C: 929: PORTD = 0xFF;
  2106  0005B2  6883               	setf	3971,c	;volatile
  2107  0005B4  0012               	return	
  2108  0005B6                     __end_of_DetInit:
  2109                           	opt stack 0
  2110  0005B6                     PL11:
  2111  0005B6  0E00               	movlw	low _det_timer_counter_buf
  2112  0005B8  24F3               	addwf	prodl,w,c
  2113  0005BA  6ED9               	movwf	fsr2l,c
  2114  0005BC  6ADA               	clrf	fsr2h,c
  2115  0005BE  0E01               	movlw	high _det_timer_counter_buf
  2116  0005C0  22DA               	addwfc	fsr2h,f,c
  2117  0005C2  0012               	return	
  2118  0005C4                     PL16:
  2119  0005C4  503D               	movf	DetInit@i,w,c
  2120  0005C6  0D02               	mullw	2
  2121  0005C8  50F3               	movf	prodl,w,c
  2122  0005CA  0F01               	addlw	low _det_timer_average
  2123  0005CC  6ED9               	movwf	fsr2l,c
  2124  0005CE  6ADA               	clrf	fsr2h,c
  2125  0005D0  0012               	return	
  2126  0005D2                     PL19:
  2127  0005D2  C03D  F03A         	movff	DetInit@i,??_DetInit
  2128  0005D6  0E01               	movlw	1
  2129  0005D8  6E3B               	movwf	(??_DetInit+1)& (0+255),c
  2130  0005DA  2A3A               	incf	??_DetInit,f,c
  2131  0005DC  0C01               	retlw	1
  2132                           tblptru	equ	0xFF8
  2133                           tblptrh	equ	0xFF7
  2134                           tblptrl	equ	0xFF6
  2135                           tablat	equ	0xFF5
  2136                           prodl	equ	0xFF3
  2137                           intcon	equ	0xFF2
  2138                           postinc0	equ	0xFEE
  2139                           wreg	equ	0xFE8
  2140                           indf1	equ	0xFE7
  2141                           postinc1	equ	0xFE6
  2142                           postdec1	equ	0xFE5
  2143                           fsr1h	equ	0xFE2
  2144                           fsr1l	equ	0xFE1
  2145                           indf2	equ	0xFDF
  2146                           postinc2	equ	0xFDE
  2147                           postdec2	equ	0xFDD
  2148                           fsr2h	equ	0xFDA
  2149                           fsr2l	equ	0xFD9
  2150                           status	equ	0xFD8
  2151                           
  2152 ;; *************** function _GetTimeAverage *****************
  2153 ;; Defined at:
  2154 ;;		line 782 in file "E:\working\coil\coil-v0.0-14\CoilDet\CoilDet-V0.0.C"
  2155 ;; Parameters:    Size  Location     Type
  2156 ;;  ch              1    wreg     unsigned char 
  2157 ;; Auto vars:     Size  Location     Type
  2158 ;;  ch              1   16[COMRAM] unsigned char 
  2159 ;;  tempSum         4   10[COMRAM] unsigned long 
  2160 ;;  tempData1       2    8[COMRAM] unsigned int 
  2161 ;;  tempData        2    6[COMRAM] unsigned int 
  2162 ;;  i               1   17[COMRAM] unsigned char 
  2163 ;;  k               1   15[COMRAM] unsigned char 
  2164 ;;  j               1   14[COMRAM] unsigned char 
  2165 ;; Return value:  Size  Location     Type
  2166 ;;                  2    0[COMRAM] unsigned int 
  2167 ;; Registers used:
  2168 ;;		wreg, fsr2l, fsr2h, status,2, status,0, prodl, prodh
  2169 ;; Tracked objects:
  2170 ;;		On entry : 0/F
  2171 ;;		On exit  : 0/0
  2172 ;;		Unchanged: FFFFFFF0/0
  2173 ;; Data sizes:     COMRAM   BANK0   BANK1   BANK2   BANK3   BANK4   BANK5   BANK6   BANK7   BANK8   BANK9  BANK10  BANK1
      +1  BANK12  BANK13  BANK14
  2174 ;;      Params:         2       0       0       0       0       0       0       0       0       0       0       0       
      +0       0       0       0
  2175 ;;      Locals:        12       0       0       0       0       0       0       0       0       0       0       0       
      +0       0       0       0
  2176 ;;      Temps:          4       0       0       0       0       0       0       0       0       0       0       0       
      +0       0       0       0
  2177 ;;      Totals:        18       0       0       0       0       0       0       0       0       0       0       0       
      +0       0       0       0
  2178 ;;Total ram usage:       18 bytes
  2179 ;; Hardware stack levels used:    1
  2180 ;; Hardware stack levels required when called:    2
  2181 ;; This function calls:
  2182 ;;		Nothing
  2183 ;; This function is called by:
  2184 ;;		_Ch_Timeout_Processing
  2185 ;;		_DetInit
  2186 ;;		_main
  2187 ;; This function uses a non-reentrant model
  2188 ;;
  2189                           
  2190                           	psect	text7
  2191  0002FA                     __ptext7:
  2192                           	opt stack 0
  2193  0002FA                     _GetTimeAverage:
  2194                           	opt stack 28
  2195                           
  2196                           ;GetTimeAverage@ch stored from wreg
  2197  0002FA  CFE8 F038          	movff	wreg,GetTimeAverage@ch
  2198                           
  2199                           ;CoilDet-V0.0.C: 783: unsigned char i=0;
  2200  0002FE  6A39               	clrf	GetTimeAverage@i,c
  2201                           
  2202                           ;CoilDet-V0.0.C: 784: unsigned char j,k;
  2203                           ;CoilDet-V0.0.C: 785: unsigned int tempData = 0x0000,tempData1;
  2204  000300  6A2E               	clrf	GetTimeAverage@tempData,c
  2205  000302  6A2F               	clrf	GetTimeAverage@tempData+1,c
  2206                           
  2207                           ;CoilDet-V0.0.C: 787: tempData1 = 0xffff;
  2208  000304  6830               	setf	GetTimeAverage@tempData1,c
  2209  000306  6831               	setf	GetTimeAverage@tempData1+1,c
  2210                           
  2211                           ;CoilDet-V0.0.C: 788: j=0;k=0;
  2212  000308  6A36               	clrf	GetTimeAverage@j,c
  2213  00030A  6A37               	clrf	GetTimeAverage@k,c
  2214                           
  2215                           ;CoilDet-V0.0.C: 789: for(i=0;i<10;i++)
  2216  00030C  6A39               	clrf	GetTimeAverage@i,c
  2217  00030E                     l2379:
  2218                           
  2219                           ;CoilDet-V0.0.C: 790: {
  2220                           ;CoilDet-V0.0.C: 791: if(tempData < det_timer_counter_buf[ch][i])
  2221  00030E  D865               	call	PL2	;call to abstracted procedure
  2222  000310  CFDE F02C          	movff	postinc2,??_GetTimeAverage+2
  2223  000314  CFDD F02D          	movff	postdec2,??_GetTimeAverage+3
  2224  000318  502C               	movf	??_GetTimeAverage+2,w,c
  2225  00031A  5C2E               	subwf	GetTimeAverage@tempData,w,c
  2226  00031C  502D               	movf	??_GetTimeAverage+3,w,c
  2227  00031E  582F               	subwfb	GetTimeAverage@tempData+1,w,c
  2228  000320  E207               	bc	l633
  2229                           
  2230                           ;CoilDet-V0.0.C: 792: {
  2231                           ;CoilDet-V0.0.C: 793: j = i;
  2232  000322  C039  F036         	movff	GetTimeAverage@i,GetTimeAverage@j
  2233                           
  2234                           ;CoilDet-V0.0.C: 794: tempData = det_timer_counter_buf[ch][i];
  2235  000326  D859               	call	PL2	;call to abstracted procedure
  2236  000328  CFDE F02E          	movff	postinc2,GetTimeAverage@tempData
  2237  00032C  CFDD F02F          	movff	postdec2,GetTimeAverage@tempData+1
  2238  000330                     l633:
  2239                           
  2240                           ;CoilDet-V0.0.C: 795: }
  2241                           ;CoilDet-V0.0.C: 796: if(tempData1> det_timer_counter_buf[ch][i])
  2242  000330  D854               	call	PL2	;call to abstracted procedure
  2243  000332  CFDE F02C          	movff	postinc2,??_GetTimeAverage+2
  2244  000336  CFDD F02D          	movff	postdec2,??_GetTimeAverage+3
  2245  00033A  5030               	movf	GetTimeAverage@tempData1,w,c
  2246  00033C  5C2C               	subwf	??_GetTimeAverage+2,w,c
  2247  00033E  5031               	movf	GetTimeAverage@tempData1+1,w,c
  2248  000340  582D               	subwfb	??_GetTimeAverage+3,w,c
  2249  000342  E207               	bc	l2389
  2250                           
  2251                           ;CoilDet-V0.0.C: 797: {
  2252                           ;CoilDet-V0.0.C: 798: k = i;
  2253  000344  C039  F037         	movff	GetTimeAverage@i,GetTimeAverage@k
  2254                           
  2255                           ;CoilDet-V0.0.C: 799: tempData1= det_timer_counter_buf[ch][i];
  2256  000348  D848               	call	PL2	;call to abstracted procedure
  2257  00034A  CFDE F030          	movff	postinc2,GetTimeAverage@tempData1
  2258  00034E  CFDD F031          	movff	postdec2,GetTimeAverage@tempData1+1
  2259  000352                     l2389:
  2260  000352  2A39               	incf	GetTimeAverage@i,f,c
  2261  000354  0E09               	movlw	9
  2262  000356  6439               	cpfsgt	GetTimeAverage@i,c
  2263  000358  D7DA               	goto	l2379
  2264                           
  2265                           ;CoilDet-V0.0.C: 800: }
  2266                           ;CoilDet-V0.0.C: 802: }
  2267                           ;CoilDet-V0.0.C: 803: tempSum = 0x00000000;
  2268  00035A  6A32               	clrf	GetTimeAverage@tempSum,c
  2269  00035C  6A33               	clrf	GetTimeAverage@tempSum+1,c
  2270  00035E  6A34               	clrf	GetTimeAverage@tempSum+2,c
  2271  000360  6A35               	clrf	GetTimeAverage@tempSum+3,c
  2272                           
  2273                           ;CoilDet-V0.0.C: 804: if(j!=k)
  2274  000362  5036               	movf	GetTimeAverage@j,w,c
  2275  000364  1837               	xorwf	GetTimeAverage@k,w,c
  2276  000366  E02F               	bz	l2421
  2277                           
  2278                           ;CoilDet-V0.0.C: 805: {
  2279                           ;CoilDet-V0.0.C: 806: for(i=0;i<10;i++)
  2280  000368  6A39               	clrf	GetTimeAverage@i,c
  2281  00036A                     l2401:
  2282                           
  2283                           ;CoilDet-V0.0.C: 807: {
  2284                           ;CoilDet-V0.0.C: 808: if(i==j)continue;
  2285  00036A  5036               	movf	GetTimeAverage@j,w,c
  2286  00036C  6239               	cpfseq	GetTimeAverage@i,c
  2287  00036E  D001               	goto	l2405
  2288  000370  D010               	goto	l2411
  2289  000372                     l2405:
  2290                           
  2291                           ;CoilDet-V0.0.C: 809: if(i==k)continue;
  2292  000372  5037               	movf	GetTimeAverage@k,w,c
  2293  000374  6239               	cpfseq	GetTimeAverage@i,c
  2294  000376  D001               	goto	l2409
  2295  000378  D00C               	goto	l2411
  2296  00037A                     l2409:
  2297                           
  2298                           ;CoilDet-V0.0.C: 810: tempSum += det_timer_counter_buf[ch][i];
  2299  00037A  D82F               	call	PL2	;call to abstracted procedure
  2300  00037C  CFDE F02C          	movff	postinc2,??_GetTimeAverage+2
  2301  000380  CFDD F02D          	movff	postdec2,??_GetTimeAverage+3
  2302  000384  502C               	movf	??_GetTimeAverage+2,w,c
  2303  000386  2632               	addwf	GetTimeAverage@tempSum,f,c
  2304  000388  502D               	movf	??_GetTimeAverage+3,w,c
  2305  00038A  2233               	addwfc	GetTimeAverage@tempSum+1,f,c
  2306  00038C  0E00               	movlw	0
  2307  00038E  2234               	addwfc	GetTimeAverage@tempSum+2,f,c
  2308  000390  2235               	addwfc	GetTimeAverage@tempSum+3,f,c
  2309  000392                     l2411:
  2310  000392  2A39               	incf	GetTimeAverage@i,f,c
  2311  000394  0E09               	movlw	9
  2312  000396  6439               	cpfsgt	GetTimeAverage@i,c
  2313  000398  D7E8               	goto	l2401
  2314                           
  2315                           ;CoilDet-V0.0.C: 812: }
  2316                           ;CoilDet-V0.0.C: 813: return (tempSum>>3);
  2317  00039A  C032  F02A         	movff	GetTimeAverage@tempSum,??_GetTimeAverage
  2318  00039E  C033  F02B         	movff	GetTimeAverage@tempSum+1,??_GetTimeAverage+1
  2319  0003A2  C034  F02C         	movff	GetTimeAverage@tempSum+2,??_GetTimeAverage+2
  2320  0003A6  C035  F02D         	movff	GetTimeAverage@tempSum+3,??_GetTimeAverage+3
  2321  0003AA  0E04               	movlw	4
  2322  0003AC  D005               	goto	u1530
  2323  0003AE                     u1535:
  2324  0003AE  90D8               	bcf	status,0,c
  2325  0003B0  322D               	rrcf	??_GetTimeAverage+3,f,c
  2326  0003B2  322C               	rrcf	??_GetTimeAverage+2,f,c
  2327  0003B4  322B               	rrcf	??_GetTimeAverage+1,f,c
  2328  0003B6  322A               	rrcf	??_GetTimeAverage,f,c
  2329  0003B8                     u1530:
  2330  0003B8  2EE8               	decfsz	wreg,f,c
  2331  0003BA  D7F9               	goto	u1535
  2332  0003BC  C02A  F028         	movff	??_GetTimeAverage,?_GetTimeAverage
  2333  0003C0  C02B  F029         	movff	??_GetTimeAverage+1,?_GetTimeAverage+1
  2334  0003C4  0012               	return	
  2335  0003C6                     l2421:
  2336                           
  2337                           ;CoilDet-V0.0.C: 815: else
  2338                           ;CoilDet-V0.0.C: 816: {
  2339                           ;CoilDet-V0.0.C: 817: return det_timer_counter_buf[ch][0];
  2340  0003C6  5038               	movf	GetTimeAverage@ch,w,c
  2341  0003C8  0D14               	mullw	20
  2342  0003CA  0101               	movlb	1	; () banked
  2343  0003CC  ECDB  F002         	call	PL11	;call to abstracted procedure
  2344  0003D0  CFDE F028          	movff	postinc2,?_GetTimeAverage
  2345  0003D4  CFDD F029          	movff	postdec2,?_GetTimeAverage+1
  2346  0003D8  0012               	return	
  2347  0003DA                     __end_of_GetTimeAverage:
  2348                           	opt stack 0
  2349  0003DA                     PL2:
  2350  0003DA  5038               	movf	GetTimeAverage@ch,w,c
  2351  0003DC  0D14               	mullw	20
  2352  0003DE  0E00               	movlw	low _det_timer_counter_buf
  2353  0003E0  6E2A               	movwf	??_GetTimeAverage& (0+255),c
  2354  0003E2  0E01               	movlw	high _det_timer_counter_buf
  2355  0003E4  6E2B               	movwf	(??_GetTimeAverage+1)& (0+255),c
  2356  0003E6  50F3               	movf	prodl,w,c
  2357  0003E8  262A               	addwf	??_GetTimeAverage,f,c
  2358  0003EA  0E00               	movlw	0
  2359  0003EC  222B               	addwfc	??_GetTimeAverage+1,f,c
  2360  0003EE  5039               	movf	GetTimeAverage@i,w,c
  2361  0003F0  0D02               	mullw	2
  2362  0003F2  50F3               	movf	prodl,w,c
  2363  0003F4  242A               	addwf	??_GetTimeAverage,w,c
  2364  0003F6  6ED9               	movwf	fsr2l,c
  2365  0003F8  0E00               	movlw	0
  2366  0003FA  202B               	addwfc	??_GetTimeAverage+1,w,c
  2367  0003FC  6EDA               	movwf	fsr2h,c
  2368  0003FE  0012               	return	
  2369                           tblptru	equ	0xFF8
  2370                           tblptrh	equ	0xFF7
  2371                           tblptrl	equ	0xFF6
  2372                           tablat	equ	0xFF5
  2373                           prodl	equ	0xFF3
  2374                           intcon	equ	0xFF2
  2375                           postinc0	equ	0xFEE
  2376                           wreg	equ	0xFE8
  2377                           indf1	equ	0xFE7
  2378                           postinc1	equ	0xFE6
  2379                           postdec1	equ	0xFE5
  2380                           fsr1h	equ	0xFE2
  2381                           fsr1l	equ	0xFE1
  2382                           indf2	equ	0xFDF
  2383                           postinc2	equ	0xFDE
  2384                           postdec2	equ	0xFDD
  2385                           fsr2h	equ	0xFDA
  2386                           fsr2l	equ	0xFD9
  2387                           status	equ	0xFD8
  2388                           
  2389 ;; *************** function _StartDet *****************
  2390 ;; Defined at:
  2391 ;;		line 955 in file "E:\working\coil\coil-v0.0-14\CoilDet\CoilDet-V0.0.C"
  2392 ;; Parameters:    Size  Location     Type
  2393 ;;		None
  2394 ;; Auto vars:     Size  Location     Type
  2395 ;;  temp_timer_c    2   12[COMRAM] unsigned int 
  2396 ;;  i               1   14[COMRAM] unsigned char 
  2397 ;; Return value:  Size  Location     Type
  2398 ;;		None               void
  2399 ;; Registers used:
  2400 ;;		wreg, fsr1l, fsr1h, fsr2l, fsr2h, status,2, status,0, prodl, prodh, cstack
  2401 ;; Tracked objects:
  2402 ;;		On entry : 0/F
  2403 ;;		On exit  : 0/0
  2404 ;;		Unchanged: FFFFFFF0/0
  2405 ;; Data sizes:     COMRAM   BANK0   BANK1   BANK2   BANK3   BANK4   BANK5   BANK6   BANK7   BANK8   BANK9  BANK10  BANK1
      +1  BANK12  BANK13  BANK14
  2406 ;;      Params:         0       0       0       0       0       0       0       0       0       0       0       0       
      +0       0       0       0
  2407 ;;      Locals:         3       0       0       0       0       0       0       0       0       0       0       0       
      +0       0       0       0
  2408 ;;      Temps:          4       0       0       0       0       0       0       0       0       0       0       0       
      +0       0       0       0
  2409 ;;      Totals:         7       0       0       0       0       0       0       0       0       0       0       0       
      +0       0       0       0
  2410 ;;Total ram usage:        7 bytes
  2411 ;; Hardware stack levels used:    1
  2412 ;; Hardware stack levels required when called:    3
  2413 ;; This function calls:
  2414 ;;		_delayus
  2415 ;;		_GetTimerCounter
  2416 ;; This function is called by:
  2417 ;;		_main
  2418 ;; This function uses a non-reentrant model
  2419 ;;
  2420                           
  2421                           	psect	text8
  2422  000068                     __ptext8:
  2423                           	opt stack 0
  2424  000068                     _StartDet:
  2425                           	opt stack 27
  2426                           
  2427                           ;CoilDet-V0.0.C: 958: unsigned char i = 0x00;
  2428  000068  6A36               	clrf	StartDet@i,c
  2429                           
  2430                           ;CoilDet-V0.0.C: 960: for(i=0;i<8;i++)
  2431  00006A  6A36               	clrf	StartDet@i,c
  2432  00006C  0E07               	movlw	7
  2433  00006E  6436               	cpfsgt	StartDet@i,c
  2434  000070  D001               	goto	l2707
  2435  000072  D0A3               	goto	l672
  2436  000074                     l2707:
  2437                           
  2438                           ;CoilDet-V0.0.C: 961: {
  2439                           ;CoilDet-V0.0.C: 964: if(det_enable & (0x01 <<i))
  2440  000074  C036  F030         	movff	StartDet@i,??_StartDet
  2441  000078  0E01               	movlw	1
  2442  00007A  6E31               	movwf	(??_StartDet+1)& (0+255),c
  2443  00007C  2A30               	incf	??_StartDet,f,c
  2444  00007E  D002               	goto	u1814
  2445  000080                     u1815:
  2446  000080  90D8               	bcf	status,0,c
  2447  000082  3631               	rlcf	??_StartDet+1,f,c
  2448  000084                     u1814:
  2449  000084  2E30               	decfsz	??_StartDet,f,c
  2450  000086  D7FC               	goto	u1815
  2451  000088  5031               	movf	??_StartDet+1,w,c
  2452  00008A  1458               	andwf	_det_enable,w,c
  2453  00008C  E101 D093          	bz	l2751
  2454                           
  2455                           ;CoilDet-V0.0.C: 965: {
  2456                           ;CoilDet-V0.0.C: 967: PORTD = 0xff & (~(0x01 << i));
  2457  000090  D896               	call	PL9	;call to abstracted procedure
  2458  000092  6E83               	movwf	3971,c	;volatile
  2459                           
  2460                           ;CoilDet-V0.0.C: 970: delayus(100);
  2461  000094  6A29               	clrf	?_delayus+1,c
  2462  000096  0E64               	movlw	100
  2463  000098  6E28               	movwf	?_delayus,c
  2464  00009A  ECB8  F007         	call	_delayus	;wreg free
  2465                           
  2466                           ;CoilDet-V0.0.C: 971: det_timer_conter[i] = GetTimerCounter(i);
  2467  00009E  5036               	movf	StartDet@i,w,c
  2468  0000A0  ECCC  F005         	call	_GetTimerCounter
  2469  0000A4  5036               	movf	StartDet@i,w,c
  2470  0000A6  0D02               	mullw	2
  2471  0000A8  50F3               	movf	prodl,w,c
  2472  0000AA  0100               	movlb	0	; () banked
  2473  0000AC  0F90               	addlw	low _det_timer_conter
  2474  0000AE  6ED9               	movwf	fsr2l,c
  2475  0000B0  6ADA               	clrf	fsr2h,c
  2476  0000B2  C028  FFDE         	movff	?_GetTimerCounter,postinc2
  2477  0000B6  C029  FFDD         	movff	?_GetTimerCounter+1,postdec2
  2478                           
  2479                           ; BSR set to: 0
  2480                           ;CoilDet-V0.0.C: 972: delayus(100);
  2481  0000BA  6A29               	clrf	?_delayus+1,c
  2482  0000BC  0E64               	movlw	100
  2483  0000BE  6E28               	movwf	?_delayus,c
  2484  0000C0  ECB8  F007         	call	_delayus	;wreg free
  2485                           
  2486                           ; BSR set to: 0
  2487                           ;CoilDet-V0.0.C: 973: if(i==7)
  2488  0000C4  5036               	movf	StartDet@i,w,c
  2489  0000C6  0A07               	xorlw	7
  2490  0000C8  E104               	bnz	l2723
  2491                           
  2492                           ; BSR set to: 0
  2493                           ;CoilDet-V0.0.C: 974: {
  2494                           ;CoilDet-V0.0.C: 975: DT_data1[4] = det_timer_conter[7]>>8;
  2495  0000CA  519F               	movf	(_det_timer_conter+15)& (0+255),w,b
  2496  0000CC  6FCE               	movwf	(_DT_data1+4)& (0+255),b
  2497                           
  2498                           ; BSR set to: 0
  2499                           ;CoilDet-V0.0.C: 976: DT_data1[5] = det_timer_conter[7];
  2500  0000CE  C09E  F0CF         	movff	_det_timer_conter+14,_DT_data1+5
  2501  0000D2                     l2723:
  2502                           
  2503                           ; BSR set to: 0
  2504                           ;CoilDet-V0.0.C: 977: }
  2505                           ;CoilDet-V0.0.C: 978: if(!det_output_enable)
  2506  0000D2  0100               	movlb	(_det_output_enable/(0+8)) shr (0+8)
  2507  0000D4  B25C               	btfsc	_det_output_enable/(0+8),_det_output_enable& (0+7),c
  2508  0000D6  D009               	goto	l2727
  2509                           
  2510                           ;CoilDet-V0.0.C: 979: {
  2511                           ;CoilDet-V0.0.C: 980: det_fillbuf_enable |= (0x01<<i);
  2512  0000D8  C036  F030         	movff	StartDet@i,??_StartDet
  2513  0000DC  D883               	call	PL20	;call to abstracted procedure
  2514  0000DE  D002               	goto	u1864
  2515  0000E0                     u1865:
  2516  0000E0  90D8               	bcf	status,0,c
  2517  0000E2  3631               	rlcf	??_StartDet+1,f,c
  2518  0000E4                     u1864:
  2519  0000E4  2E30               	decfsz	??_StartDet,f,c
  2520  0000E6  D7FC               	goto	u1865
  2521  0000E8  D064               	goto	L1
  2522  0000EA                     l2727:
  2523                           
  2524                           ;CoilDet-V0.0.C: 982: }
  2525                           ;CoilDet-V0.0.C: 987: if(det_timer_conter[i] < det_timer_average[i])
  2526  0000EA  D875               	call	PL17	;call to abstracted procedure
  2527  0000EC  5036               	movf	StartDet@i,w,c
  2528  0000EE  0D02               	mullw	2
  2529  0000F0  50F3               	movf	prodl,w,c
  2530  0000F2  0100               	movlb	0	; () banked
  2531  0000F4  0F90               	addlw	low _det_timer_conter
  2532  0000F6  6EE1               	movwf	fsr1l,c
  2533  0000F8  6AE2               	clrf	fsr1h,c
  2534  0000FA  52E6               	movf	postinc1,f,c
  2535  0000FC  52DE               	movf	postinc2,f,c
  2536  0000FE  50DD               	movf	postdec2,w,c
  2537  000100  5CE5               	subwf	postdec1,w,c
  2538  000102  E102               	bnz	u1875
  2539  000104  50DF               	movf	indf2,w,c
  2540  000106  5CE7               	subwf	indf1,w,c
  2541  000108                     u1875:
  2542  000108  E24A               	bc	l2747
  2543                           
  2544                           ; BSR set to: 0
  2545                           ;CoilDet-V0.0.C: 988: {
  2546                           ;CoilDet-V0.0.C: 989: temp_timer_counter = det_timer_average[i] - det_timer_conter[i];
  2547  00010A  5036               	movf	StartDet@i,w,c
  2548  00010C  0D02               	mullw	2
  2549  00010E  50F3               	movf	prodl,w,c
  2550  000110  0F90               	addlw	low _det_timer_conter
  2551  000112  6ED9               	movwf	fsr2l,c
  2552  000114  6ADA               	clrf	fsr2h,c
  2553  000116  CFDE F030          	movff	postinc2,??_StartDet
  2554  00011A  CFDD F031          	movff	postdec2,??_StartDet+1
  2555  00011E  D85B               	call	PL17	;call to abstracted procedure
  2556  000120  CFDE F032          	movff	postinc2,??_StartDet+2
  2557  000124  CFDD F033          	movff	postdec2,??_StartDet+3
  2558  000128  5030               	movf	??_StartDet,w,c
  2559  00012A  5C32               	subwf	??_StartDet+2,w,c
  2560  00012C  6E34               	movwf	StartDet@temp_timer_counter,c
  2561  00012E  5031               	movf	??_StartDet+1,w,c
  2562  000130  5833               	subwfb	??_StartDet+3,w,c
  2563  000132  6E35               	movwf	StartDet@temp_timer_counter+1,c
  2564                           
  2565                           ; BSR set to: 0
  2566                           ;CoilDet-V0.0.C: 990: if ((temp_timer_counter) >= det_current_sens[i])
  2567  000134  5036               	movf	StartDet@i,w,c
  2568  000136  0F4E               	addlw	low _det_current_sens
  2569  000138  6ED9               	movwf	fsr2l,c
  2570  00013A  6ADA               	clrf	fsr2h,c
  2571  00013C  50DF               	movf	indf2,w,c
  2572  00013E  6E30               	movwf	??_StartDet& (0+255),c
  2573  000140  C030  F031         	movff	??_StartDet,??_StartDet+1
  2574  000144  6A32               	clrf	(??_StartDet+2)& (0+255),c
  2575  000146  5031               	movf	??_StartDet+1,w,c
  2576  000148  5C34               	subwf	StartDet@temp_timer_counter,w,c
  2577  00014A  5032               	movf	??_StartDet+2,w,c
  2578  00014C  5835               	subwfb	StartDet@temp_timer_counter+1,w,c
  2579  00014E  E327               	bnc	l2747
  2580                           
  2581                           ; BSR set to: 0
  2582                           ;CoilDet-V0.0.C: 991: {
  2583                           ;CoilDet-V0.0.C: 992: det_fillbuf_enable &= ~(0x01<<i);
  2584  000150  D836               	call	PL9	;call to abstracted procedure
  2585  000152  161F               	andwf	_det_fillbuf_enable,f,c
  2586                           
  2587                           ; BSR set to: 0
  2588                           ;CoilDet-V0.0.C: 993: if((det_result_output>>i)&0x01)
  2589  000154  C036  F030         	movff	StartDet@i,??_StartDet
  2590  000158  C020  F031         	movff	_det_result_output,??_StartDet+1
  2591  00015C  2A30               	incf	??_StartDet,f,c
  2592  00015E  D002               	goto	u1904
  2593  000160                     u1905:
  2594  000160  90D8               	bcf	status,0,c
  2595  000162  3231               	rrcf	??_StartDet+1,f,c
  2596  000164                     u1904:
  2597  000164  2E30               	decfsz	??_StartDet,f,c
  2598  000166  D7FC               	goto	u1905
  2599  000168  A031               	btfss	??_StartDet+1,0,c
  2600  00016A  D010               	goto	l2741
  2601                           
  2602                           ; BSR set to: 0
  2603                           ;CoilDet-V0.0.C: 994: {
  2604                           ;CoilDet-V0.0.C: 995: if(det_output_enable) det_result[0] |= 0x01 <<i;
  2605  00016C  0100               	movlb	(_det_output_enable/(0+8)) shr (0+8)
  2606  00016E  A25C               	btfss	_det_output_enable/(0+8),_det_output_enable& (0+7),c
  2607  000170  D022               	goto	l2751
  2608  000172                     l2739:
  2609  000172  C036  F030         	movff	StartDet@i,??_StartDet
  2610  000176  0E01               	movlw	1
  2611  000178  6E31               	movwf	(??_StartDet+1)& (0+255),c
  2612  00017A  2A30               	incf	??_StartDet,f,c
  2613  00017C  D002               	goto	u1934
  2614  00017E                     u1935:
  2615  00017E  90D8               	bcf	status,0,c
  2616  000180  3631               	rlcf	??_StartDet+1,f,c
  2617  000182                     u1934:
  2618  000182  2E30               	decfsz	??_StartDet,f,c
  2619  000184  D7FC               	goto	u1935
  2620  000186  5031               	movf	??_StartDet+1,w,c
  2621  000188  121A               	iorwf	_det_result,f,c
  2622  00018A  D015               	goto	l2751
  2623  00018C                     l2741:
  2624                           
  2625                           ; BSR set to: 0
  2626                           ;CoilDet-V0.0.C: 997: else
  2627                           ;CoilDet-V0.0.C: 998: {
  2628                           ;CoilDet-V0.0.C: 999: if(temp_timer_counter>=800)
  2629  00018C  0E20               	movlw	32
  2630  00018E  5C34               	subwf	StartDet@temp_timer_counter,w,c
  2631  000190  0E03               	movlw	3
  2632  000192  5835               	subwfb	StartDet@temp_timer_counter+1,w,c
  2633  000194  E210               	bc	l2751
  2634                           
  2635                           ; BSR set to: 0
  2636                           ;CoilDet-V0.0.C: 1003: else
  2637                           ;CoilDet-V0.0.C: 1004: {
  2638                           ;CoilDet-V0.0.C: 1005: if(det_output_enable) det_result[0] |= 0x01 <<i;
  2639  000196  0100               	movlb	(_det_output_enable/(0+8)) shr (0+8)
  2640  000198  B25C               	btfsc	_det_output_enable/(0+8),_det_output_enable& (0+7),c
  2641  00019A  D7EB               	goto	l2739
  2642  00019C  D00C               	goto	l2751
  2643  00019E                     l2747:
  2644                           
  2645                           ; BSR set to: 0
  2646                           ;CoilDet-V0.0.C: 1009: else
  2647                           ;CoilDet-V0.0.C: 1010: {
  2648                           ;CoilDet-V0.0.C: 1011: det_result[0] &= (~(0x01 <<i));
  2649  00019E  D80F               	call	PL9	;call to abstracted procedure
  2650  0001A0  161A               	andwf	_det_result,f,c
  2651                           
  2652                           ;CoilDet-V0.0.C: 1012: det_fillbuf_enable |= (0x01<<i);
  2653  0001A2  C036  F030         	movff	StartDet@i,??_StartDet
  2654  0001A6  D81E               	call	PL20	;call to abstracted procedure
  2655  0001A8  D002               	goto	u1974
  2656  0001AA                     u1975:
  2657  0001AA  90D8               	bcf	status,0,c
  2658  0001AC  3631               	rlcf	??_StartDet+1,f,c
  2659  0001AE                     u1974:
  2660  0001AE  2E30               	decfsz	??_StartDet,f,c
  2661  0001B0  D7FC               	goto	u1975
  2662  0001B2                     L1:
  2663  0001B2  5031               	movf	??_StartDet+1,w,c
  2664  0001B4  121F               	iorwf	_det_fillbuf_enable,f,c
  2665  0001B6                     l2751:
  2666  0001B6  2A36               	incf	StartDet@i,f,c
  2667  0001B8  D759               	goto	L2
  2668  0001BA                     l672:
  2669                           
  2670                           ;CoilDet-V0.0.C: 1024: }
  2671                           ;CoilDet-V0.0.C: 1025: }
  2672                           ;CoilDet-V0.0.C: 1026: }
  2673                           ;CoilDet-V0.0.C: 1028: PORTD = 0xFF;
  2674  0001BA  6883               	setf	3971,c	;volatile
  2675  0001BC  0012               	return	
  2676  0001BE                     __end_of_StartDet:
  2677                           	opt stack 0
  2678  0001BE                     PL9:
  2679  0001BE  C036  F030         	movff	StartDet@i,??_StartDet
  2680  0001C2  0E01               	movlw	1
  2681  0001C4  6E31               	movwf	(??_StartDet+1)& (0+255),c
  2682  0001C6  2A30               	incf	??_StartDet,f,c
  2683  0001C8  D002               	goto	u1834
  2684  0001CA                     u1835:
  2685  0001CA  90D8               	bcf	status,0,c
  2686  0001CC  3631               	rlcf	??_StartDet+1,f,c
  2687  0001CE                     u1834:
  2688  0001CE  2E30               	decfsz	??_StartDet,f,c
  2689  0001D0  D7FC               	goto	u1835
  2690  0001D2  1C31               	comf	??_StartDet+1,w,c
  2691  0001D4  0012               	return	
  2692  0001D6                     PL17:
  2693  0001D6  5036               	movf	StartDet@i,w,c
  2694  0001D8  0D02               	mullw	2
  2695  0001DA  50F3               	movf	prodl,w,c
  2696  0001DC  0F01               	addlw	low _det_timer_average
  2697  0001DE  6ED9               	movwf	fsr2l,c
  2698  0001E0  6ADA               	clrf	fsr2h,c
  2699  0001E2  0012               	return	
  2700  0001E4                     PL20:
  2701  0001E4  0E01               	movlw	1
  2702  0001E6  6E31               	movwf	(??_StartDet+1)& (0+255),c
  2703  0001E8  2A30               	incf	??_StartDet,f,c
  2704  0001EA  0C01               	retlw	1
  2705                           tblptru	equ	0xFF8
  2706                           tblptrh	equ	0xFF7
  2707                           tblptrl	equ	0xFF6
  2708                           tablat	equ	0xFF5
  2709                           prodl	equ	0xFF3
  2710                           intcon	equ	0xFF2
  2711                           postinc0	equ	0xFEE
  2712                           wreg	equ	0xFE8
  2713                           indf1	equ	0xFE7
  2714                           postinc1	equ	0xFE6
  2715                           postdec1	equ	0xFE5
  2716                           fsr1h	equ	0xFE2
  2717                           fsr1l	equ	0xFE1
  2718                           indf2	equ	0xFDF
  2719                           postinc2	equ	0xFDE
  2720                           postdec2	equ	0xFDD
  2721                           fsr2h	equ	0xFDA
  2722                           fsr2l	equ	0xFD9
  2723                           status	equ	0xFD8
  2724                           
  2725 ;; *************** function _GetTimerCounter *****************
  2726 ;; Defined at:
  2727 ;;		line 826 in file "E:\working\coil\coil-v0.0-14\CoilDet\CoilDet-V0.0.C"
  2728 ;; Parameters:    Size  Location     Type
  2729 ;;  ch              1    wreg     unsigned char 
  2730 ;; Auto vars:     Size  Location     Type
  2731 ;;  ch              1    7[COMRAM] unsigned char 
  2732 ;;  time_val        2    5[COMRAM] unsigned int 
  2733 ;;  temp_sta        1    4[COMRAM] unsigned char 
  2734 ;; Return value:  Size  Location     Type
  2735 ;;                  2    0[COMRAM] unsigned int 
  2736 ;; Registers used:
  2737 ;;		wreg, fsr2l, fsr2h, status,2, status,0
  2738 ;; Tracked objects:
  2739 ;;		On entry : 0/F
  2740 ;;		On exit  : 0/0
  2741 ;;		Unchanged: FFFFFFF0/0
  2742 ;; Data sizes:     COMRAM   BANK0   BANK1   BANK2   BANK3   BANK4   BANK5   BANK6   BANK7   BANK8   BANK9  BANK10  BANK1
      +1  BANK12  BANK13  BANK14
  2743 ;;      Params:         2       0       0       0       0       0       0       0       0       0       0       0       
      +0       0       0       0
  2744 ;;      Locals:         4       0       0       0       0       0       0       0       0       0       0       0       
      +0       0       0       0
  2745 ;;      Temps:          2       0       0       0       0       0       0       0       0       0       0       0       
      +0       0       0       0
  2746 ;;      Totals:         8       0       0       0       0       0       0       0       0       0       0       0       
      +0       0       0       0
  2747 ;;Total ram usage:        8 bytes
  2748 ;; Hardware stack levels used:    1
  2749 ;; Hardware stack levels required when called:    2
  2750 ;; This function calls:
  2751 ;;		Nothing
  2752 ;; This function is called by:
  2753 ;;		_DetInit
  2754 ;;		_StartDet
  2755 ;; This function uses a non-reentrant model
  2756 ;;
  2757                           
  2758                           	psect	text9
  2759  000B98                     __ptext9:
  2760                           	opt stack 0
  2761  000B98                     _GetTimerCounter:
  2762                           	opt stack 27
  2763                           
  2764                           ;GetTimerCounter@ch stored from wreg
  2765  000B98  CFE8 F02F          	movff	wreg,GetTimerCounter@ch
  2766                           
  2767                           ;CoilDet-V0.0.C: 828: unsigned char temp_sta = 0x00;
  2768  000B9C  6A2C               	clrf	GetTimerCounter@temp_sta,c
  2769                           
  2770                           ;CoilDet-V0.0.C: 834: TMR3ON = 0;
  2771  000B9E  90B1               	bcf	4017,0,c	;volatile
  2772                           
  2773                           ;CoilDet-V0.0.C: 836: TMR3H = 0xff;
  2774  000BA0  68B3               	setf	4019,c	;volatile
  2775                           
  2776                           ;CoilDet-V0.0.C: 837: TMR3L = 0xf5;
  2777  000BA2  0EF5               	movlw	245
  2778  000BA4  6EB2               	movwf	4018,c	;volatile
  2779                           
  2780                           ;CoilDet-V0.0.C: 840: TMR0ON = 0;
  2781  000BA6  9ED5               	bcf	4053,7,c	;volatile
  2782                           
  2783                           ;CoilDet-V0.0.C: 842: TMR0H = 0;
  2784  000BA8  6AD7               	clrf	4055,c	;volatile
  2785                           
  2786                           ;CoilDet-V0.0.C: 843: TMR0L = 0;
  2787  000BAA  6AD6               	clrf	4054,c	;volatile
  2788                           
  2789                           ;CoilDet-V0.0.C: 846: TMR3IE = 1;
  2790  000BAC  82A0               	bsf	4000,1,c	;volatile
  2791                           
  2792                           ;CoilDet-V0.0.C: 848: SSPIE = 0;
  2793  000BAE  969D               	bcf	3997,3,c	;volatile
  2794                           
  2795                           ;CoilDet-V0.0.C: 850: time3_int = 0;
  2796  000BB0  965C               	bcf	_time3_int/(0+8),_time3_int& (0+7),c
  2797                           
  2798                           ;CoilDet-V0.0.C: 852: TMR3ON = 1;
  2799  000BB2  80B1               	bsf	4017,0,c	;volatile
  2800  000BB4                     l645:
  2801  000BB4  A65C               	btfss	_time3_int/(0+8),_time3_int& (0+7),c
  2802  000BB6  D7FE               	goto	l645
  2803                           
  2804                           ;CoilDet-V0.0.C: 862: }
  2805                           ;CoilDet-V0.0.C: 864: time3_int = 0;
  2806  000BB8  965C               	bcf	_time3_int/(0+8),_time3_int& (0+7),c
  2807                           
  2808                           ;CoilDet-V0.0.C: 867: TMR0H = 0;
  2809  000BBA  6AD7               	clrf	4055,c	;volatile
  2810                           
  2811                           ;CoilDet-V0.0.C: 868: TMR0L = 0;
  2812  000BBC  6AD6               	clrf	4054,c	;volatile
  2813                           
  2814                           ;CoilDet-V0.0.C: 872: TMR3ON = 0;
  2815  000BBE  90B1               	bcf	4017,0,c	;volatile
  2816                           
  2817                           ;CoilDet-V0.0.C: 874: TMR3H = det_pluse_counter_h[ch];
  2818  000BC0  502F               	movf	GetTimerCounter@ch,w,c
  2819  000BC2  0FA8               	addlw	low _det_pluse_counter_h
  2820  000BC4  6ED9               	movwf	fsr2l,c
  2821  000BC6  6ADA               	clrf	fsr2h,c
  2822  000BC8  50DF               	movf	indf2,w,c
  2823  000BCA  6EB3               	movwf	4019,c	;volatile
  2824                           
  2825                           ;CoilDet-V0.0.C: 875: TMR3L = det_pluse_counter_l[ch];
  2826  000BCC  502F               	movf	GetTimerCounter@ch,w,c
  2827  000BCE  0FB0               	addlw	low _det_pluse_counter_l
  2828  000BD0  6ED9               	movwf	fsr2l,c
  2829  000BD2  6ADA               	clrf	fsr2h,c
  2830  000BD4  50DF               	movf	indf2,w,c
  2831  000BD6  6EB2               	movwf	4018,c	;volatile
  2832                           
  2833                           ; BSR set to: 0
  2834                           ;CoilDet-V0.0.C: 877: time3_int = 0;
  2835  000BD8  965C               	bcf	_time3_int/(0+8),_time3_int& (0+7),c
  2836                           
  2837                           ;CoilDet-V0.0.C: 879: TMR3ON = 1;
  2838  000BDA  80B1               	bsf	4017,0,c	;volatile
  2839                           
  2840                           ;CoilDet-V0.0.C: 881: TMR0ON = 1;
  2841  000BDC  8ED5               	bsf	4053,7,c	;volatile
  2842  000BDE                     l648:
  2843  000BDE  A65C               	btfss	_time3_int/(0+8),_time3_int& (0+7),c
  2844  000BE0  D7FE               	goto	l648
  2845                           
  2846                           ;CoilDet-V0.0.C: 891: }
  2847                           ;CoilDet-V0.0.C: 893: time3_int = 0;
  2848  000BE2  0100               	movlb	(_time3_int/(0+8)) shr (0+8)
  2849  000BE4  965C               	bcf	_time3_int/(0+8),_time3_int& (0+7),c
  2850                           
  2851                           ;CoilDet-V0.0.C: 896: TMR3IE = 0;
  2852  000BE6  92A0               	bcf	4000,1,c	;volatile
  2853                           
  2854                           ;CoilDet-V0.0.C: 898: SSPIE = 1;
  2855  000BE8  869D               	bsf	3997,3,c	;volatile
  2856                           
  2857                           ;CoilDet-V0.0.C: 899: time_val = (TMR0H <<8)|TMR0L;
  2858  000BEA  50D6               	movf	4054,w,c	;volatile
  2859  000BEC  CFD7 F02A          	movff	4055,??_GetTimerCounter	;volatile
  2860  000BF0  6A2B               	clrf	(??_GetTimerCounter+1)& (0+255),c
  2861  000BF2  C02A  F02B         	movff	??_GetTimerCounter,??_GetTimerCounter+1
  2862  000BF6  6A2A               	clrf	??_GetTimerCounter,c
  2863  000BF8  102A               	iorwf	??_GetTimerCounter,w,c
  2864  000BFA  6E2D               	movwf	GetTimerCounter@time_val,c
  2865  000BFC  502B               	movf	??_GetTimerCounter+1,w,c
  2866  000BFE  6E2E               	movwf	GetTimerCounter@time_val+1,c
  2867                           
  2868                           ;CoilDet-V0.0.C: 903: }
  2869                           ;CoilDet-V0.0.C: 904: return time_val;
  2870  000C00  C02D  F028         	movff	GetTimerCounter@time_val,?_GetTimerCounter
  2871  000C04  C02E  F029         	movff	GetTimerCounter@time_val+1,?_GetTimerCounter+1
  2872  000C08  0012               	return	
  2873  000C0A                     __end_of_GetTimerCounter:
  2874                           	opt stack 0
  2875                           tblptru	equ	0xFF8
  2876                           tblptrh	equ	0xFF7
  2877                           tblptrl	equ	0xFF6
  2878                           tablat	equ	0xFF5
  2879                           prodl	equ	0xFF3
  2880                           intcon	equ	0xFF2
  2881                           postinc0	equ	0xFEE
  2882                           wreg	equ	0xFE8
  2883                           indf1	equ	0xFE7
  2884                           postinc1	equ	0xFE6
  2885                           postdec1	equ	0xFE5
  2886                           fsr1h	equ	0xFE2
  2887                           fsr1l	equ	0xFE1
  2888                           indf2	equ	0xFDF
  2889                           postinc2	equ	0xFDE
  2890                           postdec2	equ	0xFDD
  2891                           fsr2h	equ	0xFDA
  2892                           fsr2l	equ	0xFD9
  2893                           status	equ	0xFD8
  2894                           
  2895 ;; *************** function _StartCalc *****************
  2896 ;; Defined at:
  2897 ;;		line 1126 in file "E:\working\coil\coil-v0.0-14\CoilDet\CoilDet-V0.0.C"
  2898 ;; Parameters:    Size  Location     Type
  2899 ;;		None
  2900 ;; Auto vars:     Size  Location     Type
  2901 ;;  i               1    2[COMRAM] unsigned char 
  2902 ;; Return value:  Size  Location     Type
  2903 ;;		None               void
  2904 ;; Registers used:
  2905 ;;		wreg, status,2, status,0
  2906 ;; Tracked objects:
  2907 ;;		On entry : 0/F
  2908 ;;		On exit  : 0/F
  2909 ;;		Unchanged: FFFFFFFF/0
  2910 ;; Data sizes:     COMRAM   BANK0   BANK1   BANK2   BANK3   BANK4   BANK5   BANK6   BANK7   BANK8   BANK9  BANK10  BANK1
      +1  BANK12  BANK13  BANK14
  2911 ;;      Params:         0       0       0       0       0       0       0       0       0       0       0       0       
      +0       0       0       0
  2912 ;;      Locals:         1       0       0       0       0       0       0       0       0       0       0       0       
      +0       0       0       0
  2913 ;;      Temps:          2       0       0       0       0       0       0       0       0       0       0       0       
      +0       0       0       0
  2914 ;;      Totals:         3       0       0       0       0       0       0       0       0       0       0       0       
      +0       0       0       0
  2915 ;;Total ram usage:        3 bytes
  2916 ;; Hardware stack levels used:    1
  2917 ;; Hardware stack levels required when called:    2
  2918 ;; This function calls:
  2919 ;;		Nothing
  2920 ;; This function is called by:
  2921 ;;		_main
  2922 ;; This function uses a non-reentrant model
  2923 ;;
  2924                           
  2925                           	psect	text10
  2926  0006B8                     __ptext10:
  2927                           	opt stack 0
  2928  0006B8                     _StartCalc:
  2929                           	opt stack 28
  2930                           
  2931                           ;CoilDet-V0.0.C: 1127: unsigned char i = 0x00;
  2932  0006B8  6A2A               	clrf	StartCalc@i,c
  2933                           
  2934                           ;CoilDet-V0.0.C: 1129: for(i=0;i<8;i++)
  2935  0006BA  6A2A               	clrf	StartCalc@i,c
  2936  0006BC                     l2837:
  2937                           
  2938                           ;CoilDet-V0.0.C: 1130: {
  2939                           ;CoilDet-V0.0.C: 1131: if(det_enable & (0x01<<i))
  2940  0006BC  D855               	call	PL3	;call to abstracted procedure
  2941  0006BE  1458               	andwf	_det_enable,w,c
  2942  0006C0  E026               	bz	l2855
  2943                           
  2944                           ;CoilDet-V0.0.C: 1132: {
  2945                           ;CoilDet-V0.0.C: 1133: if((det_result[0] & (0x01<<i)) && (det_result[1] & (0x01<<i)) &&(
      +                          det_result[2] & (0x01<<i)))
  2946  0006C2  D852               	call	PL3	;call to abstracted procedure
  2947  0006C4  141A               	andwf	_det_result,w,c
  2948  0006C6  E009               	bz	l2847
  2949  0006C8  D84F               	call	PL3	;call to abstracted procedure
  2950  0006CA  141B               	andwf	_det_result+1,w,c
  2951  0006CC  E006               	bz	l2847
  2952  0006CE  D84C               	call	PL3	;call to abstracted procedure
  2953  0006D0  141C               	andwf	_det_result+2,w,c
  2954  0006D2  E003               	bz	l2847
  2955                           
  2956                           ;CoilDet-V0.0.C: 1134: {
  2957                           ;CoilDet-V0.0.C: 1135: det_result_output |= (0x01<<i);
  2958  0006D4  D849               	call	PL3	;call to abstracted procedure
  2959  0006D6  1220               	iorwf	_det_result_output,f,c
  2960                           
  2961                           ;CoilDet-V0.0.C: 1137: }
  2962  0006D8  D01A               	goto	l2855
  2963  0006DA                     l2847:
  2964                           
  2965                           ;CoilDet-V0.0.C: 1138: else if((!(det_result[0] & (0x01<<i))) && (!(det_result[1] & (0x0
      +                          1<<i))) &&(!(det_result[2] & (0x01<<i))))
  2966  0006DA  D846               	call	PL3	;call to abstracted procedure
  2967  0006DC  141A               	andwf	_det_result,w,c
  2968  0006DE  E113               	bnz	l726
  2969  0006E0  D843               	call	PL3	;call to abstracted procedure
  2970  0006E2  141B               	andwf	_det_result+1,w,c
  2971  0006E4  E110               	bnz	l726
  2972  0006E6  D840               	call	PL3	;call to abstracted procedure
  2973  0006E8  141C               	andwf	_det_result+2,w,c
  2974  0006EA  E10D               	bnz	l726
  2975                           
  2976                           ;CoilDet-V0.0.C: 1139: {
  2977                           ;CoilDet-V0.0.C: 1140: det_result_output &= (~(0x01<<i));
  2978  0006EC  C02A  F028         	movff	StartCalc@i,??_StartCalc
  2979  0006F0  0E01               	movlw	1
  2980  0006F2  6E29               	movwf	(??_StartCalc+1)& (0+255),c
  2981  0006F4  2A28               	incf	??_StartCalc,f,c
  2982  0006F6  D002               	goto	u2264
  2983  0006F8                     u2265:
  2984  0006F8  90D8               	bcf	status,0,c
  2985  0006FA  3629               	rlcf	??_StartCalc+1,f,c
  2986  0006FC                     u2264:
  2987  0006FC  2E28               	decfsz	??_StartCalc,f,c
  2988  0006FE  D7FC               	goto	u2265
  2989  000700  1C29               	comf	??_StartCalc+1,w,c
  2990  000702  1620               	andwf	_det_result_output,f,c
  2991                           
  2992                           ;CoilDet-V0.0.C: 1142: }
  2993  000704  D004               	goto	l2855
  2994  000706                     l726:
  2995                           
  2996                           ;CoilDet-V0.0.C: 1143: else
  2997                           ;CoilDet-V0.0.C: 1144: {
  2998                           ;CoilDet-V0.0.C: 1145: det_result[2] = det_result[1];
  2999  000706  C01B  F01C         	movff	_det_result+1,_det_result+2
  3000                           
  3001                           ;CoilDet-V0.0.C: 1146: det_result[1] = det_result[0];
  3002  00070A  C01A  F01B         	movff	_det_result,_det_result+1
  3003  00070E                     l2855:
  3004  00070E  2A2A               	incf	StartCalc@i,f,c
  3005  000710  0E07               	movlw	7
  3006  000712  642A               	cpfsgt	StartCalc@i,c
  3007  000714  D7D3               	goto	l2837
  3008                           
  3009                           ;CoilDet-V0.0.C: 1147: }
  3010                           ;CoilDet-V0.0.C: 1149: }
  3011                           ;CoilDet-V0.0.C: 1151: }
  3012                           ;CoilDet-V0.0.C: 1152: RC0 = !(det_result_output & 0X01);
  3013  000716  B020               	btfsc	_det_result_output,0,c
  3014  000718  D002               	goto	u2280
  3015  00071A  8082               	bsf	3970,0,c	;volatile
  3016  00071C  D001               	goto	u2295
  3017  00071E                     u2280:
  3018  00071E  9082               	bcf	3970,0,c	;volatile
  3019  000720                     u2295:
  3020                           
  3021                           ;CoilDet-V0.0.C: 1153: RC1 = !(det_result_output & 0X02);
  3022  000720  B220               	btfsc	_det_result_output,1,c
  3023  000722  D002               	goto	u2300
  3024  000724  8282               	bsf	3970,1,c	;volatile
  3025  000726  D001               	goto	u2315
  3026  000728                     u2300:
  3027  000728  9282               	bcf	3970,1,c	;volatile
  3028  00072A                     u2315:
  3029                           
  3030                           ;CoilDet-V0.0.C: 1154: RC2 = !(det_result_output & 0X04);
  3031  00072A  B420               	btfsc	_det_result_output,2,c
  3032  00072C  D002               	goto	u2320
  3033  00072E  8482               	bsf	3970,2,c	;volatile
  3034  000730  D001               	goto	u2335
  3035  000732                     u2320:
  3036  000732  9482               	bcf	3970,2,c	;volatile
  3037  000734                     u2335:
  3038                           
  3039                           ;CoilDet-V0.0.C: 1155: RC6 = !(det_result_output & 0X08);
  3040  000734  B620               	btfsc	_det_result_output,3,c
  3041  000736  D002               	goto	u2340
  3042  000738  8C82               	bsf	3970,6,c	;volatile
  3043  00073A  D001               	goto	u2355
  3044  00073C                     u2340:
  3045  00073C  9C82               	bcf	3970,6,c	;volatile
  3046  00073E                     u2355:
  3047                           
  3048                           ;CoilDet-V0.0.C: 1156: RC7 = !(det_result_output & 0X10);
  3049  00073E  B820               	btfsc	_det_result_output,4,c
  3050  000740  D002               	goto	u2360
  3051  000742  8E82               	bsf	3970,7,c	;volatile
  3052  000744  D001               	goto	u2375
  3053  000746                     u2360:
  3054  000746  9E82               	bcf	3970,7,c	;volatile
  3055  000748                     u2375:
  3056                           
  3057                           ;CoilDet-V0.0.C: 1157: RA1 = !(det_result_output & 0X20);
  3058  000748  BA20               	btfsc	_det_result_output,5,c
  3059  00074A  D002               	goto	u2380
  3060  00074C  8280               	bsf	3968,1,c	;volatile
  3061  00074E  D001               	goto	u2395
  3062  000750                     u2380:
  3063  000750  9280               	bcf	3968,1,c	;volatile
  3064  000752                     u2395:
  3065                           
  3066                           ;CoilDet-V0.0.C: 1158: RA2 = !(det_result_output & 0X40);
  3067  000752  BC20               	btfsc	_det_result_output,6,c
  3068  000754  D002               	goto	u2400
  3069  000756  8480               	bsf	3968,2,c	;volatile
  3070  000758  D001               	goto	u2415
  3071  00075A                     u2400:
  3072  00075A  9480               	bcf	3968,2,c	;volatile
  3073  00075C                     u2415:
  3074                           
  3075                           ;CoilDet-V0.0.C: 1159: RA3 = !(det_result_output & 0X80);
  3076  00075C  BE20               	btfsc	_det_result_output,7,c
  3077  00075E  D002               	goto	u2420
  3078  000760  8680               	bsf	3968,3,c	;volatile
  3079  000762  0012               	return	
  3080  000764                     u2420:
  3081  000764  9680               	bcf	3968,3,c	;volatile
  3082  000766  0012               	return	
  3083  000768                     __end_of_StartCalc:
  3084                           	opt stack 0
  3085  000768                     PL3:
  3086  000768  C02A  F028         	movff	StartCalc@i,??_StartCalc
  3087  00076C  0E01               	movlw	1
  3088  00076E  6E29               	movwf	(??_StartCalc+1)& (0+255),c
  3089  000770  2A28               	incf	??_StartCalc,f,c
  3090  000772  D002               	goto	u2114
  3091  000774                     u2115:
  3092  000774  90D8               	bcf	status,0,c
  3093  000776  3629               	rlcf	??_StartCalc+1,f,c
  3094  000778                     u2114:
  3095  000778  2E28               	decfsz	??_StartCalc,f,c
  3096  00077A  D7FC               	goto	u2115
  3097  00077C  5029               	movf	??_StartCalc+1,w,c
  3098  00077E  0012               	return	
  3099                           tblptru	equ	0xFF8
  3100                           tblptrh	equ	0xFF7
  3101                           tblptrl	equ	0xFF6
  3102                           tablat	equ	0xFF5
  3103                           prodl	equ	0xFF3
  3104                           intcon	equ	0xFF2
  3105                           postinc0	equ	0xFEE
  3106                           wreg	equ	0xFE8
  3107                           indf1	equ	0xFE7
  3108                           postinc1	equ	0xFE6
  3109                           postdec1	equ	0xFE5
  3110                           fsr1h	equ	0xFE2
  3111                           fsr1l	equ	0xFE1
  3112                           indf2	equ	0xFDF
  3113                           postinc2	equ	0xFDE
  3114                           postdec2	equ	0xFDD
  3115                           fsr2h	equ	0xFDA
  3116                           fsr2l	equ	0xFD9
  3117                           status	equ	0xFD8
  3118                           
  3119 ;; *************** function _DTOperation *****************
  3120 ;; Defined at:
  3121 ;;		line 1427 in file "E:\working\coil\coil-v0.0-14\CoilDet\CoilDet-V0.0.C"
  3122 ;; Parameters:    Size  Location     Type
  3123 ;;		None
  3124 ;; Auto vars:     Size  Location     Type
  3125 ;;  dt_dat          7   17[COMRAM] unsigned char [7]
  3126 ;;  i               1   24[COMRAM] unsigned char 
  3127 ;; Return value:  Size  Location     Type
  3128 ;;		None               void
  3129 ;; Registers used:
  3130 ;;		wreg, fsr2l, fsr2h, status,2, status,0, prodl, prodh, cstack
  3131 ;; Tracked objects:
  3132 ;;		On entry : 0/F
  3133 ;;		On exit  : F/0
  3134 ;;		Unchanged: 0/0
  3135 ;; Data sizes:     COMRAM   BANK0   BANK1   BANK2   BANK3   BANK4   BANK5   BANK6   BANK7   BANK8   BANK9  BANK10  BANK1
      +1  BANK12  BANK13  BANK14
  3136 ;;      Params:         0       0       0       0       0       0       0       0       0       0       0       0       
      +0       0       0       0
  3137 ;;      Locals:         8       0       0       0       0       0       0       0       0       0       0       0       
      +0       0       0       0
  3138 ;;      Temps:          5       0       0       0       0       0       0       0       0       0       0       0       
      +0       0       0       0
  3139 ;;      Totals:        13       0       0       0       0       0       0       0       0       0       0       0       
      +0       0       0       0
  3140 ;;Total ram usage:       13 bytes
  3141 ;; Hardware stack levels used:    1
  3142 ;; Hardware stack levels required when called:    7
  3143 ;; This function calls:
  3144 ;;		_DTRecv
  3145 ;;		_TransportDataProcess
  3146 ;;		_DTSend
  3147 ;; This function is called by:
  3148 ;;		_main
  3149 ;; This function uses a non-reentrant model
  3150 ;;
  3151                           
  3152                           	psect	text11
  3153  0001EC                     __ptext11:
  3154                           	opt stack 0
  3155  0001EC                     _DTOperation:
  3156                           	opt stack 23
  3157                           
  3158                           ;CoilDet-V0.0.C: 1428: unsigned char dt_dat[7]={0x00,0x00,0x00,0x00,0x00,0x00,0x00};
  3159  0001EC  EE20  F039         	lfsr	2,DTOperation@dt_dat
  3160  0001F0  0E07               	movlw	7
  3161  0001F2                     u2441:
  3162  0001F2  6ADE               	clrf	postinc2,c
  3163  0001F4  2EE8               	decfsz	wreg,f,c
  3164  0001F6  D7FD               	goto	u2441
  3165                           
  3166                           ;CoilDet-V0.0.C: 1432: {
  3167                           ;CoilDet-V0.0.C: 1434: {
  3168                           ;CoilDet-V0.0.C: 1439: DTRecv(7,dt_dat);
  3169  0001F8  0E39               	movlw	low DTOperation@dt_dat
  3170  0001FA  6E28               	movwf	?_DTRecv,c
  3171  0001FC  0E00               	movlw	high DTOperation@dt_dat
  3172  0001FE  6E29               	movwf	?_DTRecv+1,c
  3173  000200  0E0F               	movlw	15
  3174  000202  6E29               	movwf	?_DTRecv+1,c
  3175  000204  0E5F               	movlw	__accesstop+-1
  3176  000206  6428               	cpfsgt	?_DTRecv,c
  3177  000208  6A29               	clrf	?_DTRecv+1,c
  3178  00020A  0E07               	movlw	7
  3179  00020C  EC05  F006         	call	_DTRecv
  3180                           
  3181                           ;CoilDet-V0.0.C: 1450: DT_sync_buf[0] = dt_dat[0];
  3182  000210  C039  F011         	movff	DTOperation@dt_dat,_DT_sync_buf
  3183                           
  3184                           ;CoilDet-V0.0.C: 1451: DT_sync_buf[1] = dt_dat[1];
  3185  000214  C03A  F012         	movff	DTOperation@dt_dat+1,_DT_sync_buf+1
  3186                           
  3187                           ;CoilDet-V0.0.C: 1452: DT_sync_buf[2] = dt_dat[2];
  3188  000218  C03B  F013         	movff	DTOperation@dt_dat+2,_DT_sync_buf+2
  3189                           
  3190                           ;CoilDet-V0.0.C: 1453: DT_sync_buf[3] = dt_dat[3];
  3191  00021C  C03C  F014         	movff	DTOperation@dt_dat+3,_DT_sync_buf+3
  3192                           
  3193                           ;CoilDet-V0.0.C: 1454: DT_sync_buf[4] = dt_dat[4];
  3194  000220  C03D  F015         	movff	DTOperation@dt_dat+4,_DT_sync_buf+4
  3195                           
  3196                           ;CoilDet-V0.0.C: 1458: if((0X11==DT_sync_buf[0])&&(DT_sync_buf[1]==0x22)&&(DT_sync_buf[2
      +                          ]==0x33)&&(DT_sync_buf[3]==0x44)&&(DT_sync_buf[4]==0x55))
  3197  000224  5011               	movf	_DT_sync_buf,w,c
  3198  000226  0A11               	xorlw	17
  3199  000228  E10E               	bnz	l783
  3200  00022A  5012               	movf	_DT_sync_buf+1,w,c
  3201  00022C  0A22               	xorlw	34
  3202  00022E  E10B               	bnz	l783
  3203  000230  5013               	movf	_DT_sync_buf+2,w,c
  3204  000232  0A33               	xorlw	51
  3205  000234  E108               	bnz	l783
  3206  000236  5014               	movf	_DT_sync_buf+3,w,c
  3207  000238  0A44               	xorlw	68
  3208  00023A  E105               	bnz	l783
  3209  00023C  5015               	movf	_DT_sync_buf+4,w,c
  3210  00023E  0A55               	xorlw	85
  3211  000240  E102               	bnz	l783
  3212                           
  3213                           ;CoilDet-V0.0.C: 1460: {
  3214                           ;CoilDet-V0.0.C: 1461: DTSync=1;
  3215  000242  805C               	bsf	_DTSync/(0+8),_DTSync& (0+7),c
  3216                           
  3217                           ;CoilDet-V0.0.C: 1463: }
  3218  000244  D001               	goto	l784
  3219  000246                     l783:
  3220                           
  3221                           ;CoilDet-V0.0.C: 1464: else
  3222                           ;CoilDet-V0.0.C: 1465: {
  3223                           ;CoilDet-V0.0.C: 1466: DTSync=0;
  3224  000246  905C               	bcf	_DTSync/(0+8),_DTSync& (0+7),c
  3225  000248                     l784:
  3226                           
  3227                           ;CoilDet-V0.0.C: 1468: }
  3228                           ;CoilDet-V0.0.C: 1472: DT_command=dt_dat[5];
  3229  000248  C03E  F057         	movff	DTOperation@dt_dat+5,_DT_command
  3230                           
  3231                           ;CoilDet-V0.0.C: 1473: DT_data_counter=dt_dat[6];
  3232  00024C  C03F  F01E         	movff	DTOperation@dt_dat+6,_DT_data_counter
  3233                           
  3234                           ;CoilDet-V0.0.C: 1474: DTRecv(DT_data_counter,DT_data);
  3235  000250  0100               	movlb	0	; () banked
  3236  000252  0E00               	movlw	high _DT_data
  3237  000254  6E29               	movwf	?_DTRecv+1,c
  3238  000256  0EB8               	movlw	low _DT_data
  3239  000258  6E28               	movwf	?_DTRecv,c
  3240  00025A  501E               	movf	_DT_data_counter,w,c
  3241  00025C  EC05  F006         	call	_DTRecv
  3242                           
  3243                           ;CoilDet-V0.0.C: 1477: switch (DT_command)
  3244  000260  D00B               	goto	l2983
  3245  000262                     l2971:
  3246                           
  3247                           ; BSR set to: 0
  3248                           ;CoilDet-V0.0.C: 1481: DT_SDdata_counter=1;
  3249  000262  0E01               	movlw	1
  3250  000264  D005               	goto	L5
  3251  000266                     l2973:
  3252                           
  3253                           ; BSR set to: 0
  3254                           ;CoilDet-V0.0.C: 1485: DT_SDdata_counter=4;
  3255  000266  0E04               	movlw	4
  3256  000268  D003               	goto	L5
  3257  00026A                     l2977:
  3258                           
  3259                           ; BSR set to: 0
  3260                           ;CoilDet-V0.0.C: 1493: DT_SDdata_counter=2;
  3261  00026A  0E02               	movlw	2
  3262  00026C  D001               	goto	L5
  3263  00026E                     l2979:
  3264                           
  3265                           ; BSR set to: 0
  3266                           ;CoilDet-V0.0.C: 1497: DT_SDdata_counter=16;
  3267  00026E  0E10               	movlw	16
  3268  000270                     L5:
  3269  000270  6E56               	movwf	_DT_SDdata_counter,c
  3270                           
  3271                           ;CoilDet-V0.0.C: 1498: break;
  3272  000272  D014               	goto	l787
  3273  000274                     l792:
  3274                           
  3275                           ; BSR set to: 0
  3276                           ;CoilDet-V0.0.C: 1501: DT_SDdata_counter=0;
  3277  000274  6A56               	clrf	_DT_SDdata_counter,c
  3278                           
  3279                           ;CoilDet-V0.0.C: 1502: break;
  3280  000276  D012               	goto	l787
  3281  000278                     l2983:
  3282                           
  3283                           ; BSR set to: 0
  3284  000278  5057               	movf	_DT_command,w,c
  3285                           
  3286                           ; Switch size 1, requested type "space"
  3287                           ; Number of cases is 9, Range of values is 0 to 170
  3288                           ; switch strategies available:
  3289                           ; Name         Instructions Cycles
  3290                           ; simple_byte           28    15 (average)
  3291                           ;	Chosen strategy is simple_byte
  3292  00027A  E0F3               	bz	l2971
  3293  00027C  0A01               	xorlw	1	; case 1
  3294  00027E  E0F3               	bz	l2973
  3295  000280  0A03               	xorlw	3	; case 2
  3296  000282  E0F1               	bz	l2973
  3297  000284  0A01               	xorlw	1	; case 3
  3298  000286  E0F1               	bz	l2977
  3299  000288  0A07               	xorlw	7	; case 4
  3300  00028A  E0F1               	bz	l2979
  3301  00028C  0A01               	xorlw	1	; case 5
  3302  00028E  E0F2               	bz	l792
  3303  000290  0A03               	xorlw	3	; case 6
  3304  000292  E0F0               	bz	l792
  3305  000294  0A01               	xorlw	1	; case 7
  3306  000296  E0EE               	bz	l792
  3307  000298  0AAD               	xorlw	173	; case 170
  3308  00029A  E1EC               	bnz	l792
  3309  00029C                     l787:
  3310                           
  3311                           ; BSR set to: 0
  3312                           ;CoilDet-V0.0.C: 1521: if(DTSync)
  3313  00029C  0100               	movlb	(_DTSync/(0+8)) shr (0+8)
  3314  00029E  A05C               	btfss	_DTSync/(0+8),_DTSync& (0+7),c
  3315  0002A0  D003               	goto	l797
  3316                           
  3317                           ;CoilDet-V0.0.C: 1522: {
  3318                           ;CoilDet-V0.0.C: 1524: TransportDataProcess();
  3319  0002A2  ECCA  F004         	call	_TransportDataProcess	;wreg free
  3320                           
  3321                           ;CoilDet-V0.0.C: 1528: }
  3322  0002A6  D022               	goto	l2995
  3323  0002A8                     l797:
  3324                           
  3325                           ;CoilDet-V0.0.C: 1529: else
  3326                           ;CoilDet-V0.0.C: 1530: {
  3327                           ;CoilDet-V0.0.C: 1531: for(i=0;i<DT_SDdata_counter+2;i++)
  3328  0002A8  6A40               	clrf	DTOperation@i,c
  3329  0002AA  D006               	goto	l2991
  3330  0002AC                     l2987:
  3331                           
  3332                           ;CoilDet-V0.0.C: 1532: {
  3333                           ;CoilDet-V0.0.C: 1533: DT_data1[i]=0xff;
  3334  0002AC  5040               	movf	DTOperation@i,w,c
  3335  0002AE  0FCA               	addlw	low _DT_data1
  3336  0002B0  6ED9               	movwf	fsr2l,c
  3337  0002B2  6ADA               	clrf	fsr2h,c
  3338  0002B4  68DF               	setf	indf2,c
  3339                           
  3340                           ; BSR set to: 0
  3341  0002B6  2A40               	incf	DTOperation@i,f,c
  3342  0002B8                     l2991:
  3343  0002B8  C056  F034         	movff	_DT_SDdata_counter,??_DTOperation
  3344  0002BC  6A35               	clrf	(??_DTOperation+1)& (0+255),c
  3345  0002BE  0E02               	movlw	2
  3346  0002C0  2634               	addwf	??_DTOperation,f,c
  3347  0002C2  0E00               	movlw	0
  3348  0002C4  2235               	addwfc	??_DTOperation+1,f,c
  3349  0002C6  C040  F036         	movff	DTOperation@i,??_DTOperation+2
  3350  0002CA  6A37               	clrf	(??_DTOperation+3)& (0+255),c
  3351  0002CC  5037               	movf	??_DTOperation+3,w,c
  3352  0002CE  0A80               	xorlw	128
  3353  0002D0  6E38               	movwf	(??_DTOperation+4)& (0+255),c
  3354  0002D2  5034               	movf	??_DTOperation,w,c
  3355  0002D4  5C36               	subwf	??_DTOperation+2,w,c
  3356  0002D6  5035               	movf	??_DTOperation+1,w,c
  3357  0002D8  0A80               	xorlw	128
  3358  0002DA  5838               	subwfb	(??_DTOperation+4)& (0+255),w,c
  3359  0002DC  E3E7               	bnc	l2987
  3360                           
  3361                           ;CoilDet-V0.0.C: 1534: }
  3362                           ;CoilDet-V0.0.C: 1535: DTSend(DT_SDdata_counter+2,DT_data1);
  3363  0002DE  0100               	movlb	0	; () banked
  3364  0002E0  0ECA               	movlw	low _DT_data1
  3365  0002E2  6E28               	movwf	?_DTSend,c
  3366  0002E4  5056               	movf	_DT_SDdata_counter,w,c
  3367  0002E6  0F02               	addlw	2
  3368  0002E8  EC92  F005         	call	_DTSend
  3369  0002EC                     l2995:
  3370                           
  3371                           ; BSR set to: 0
  3372                           ;CoilDet-V0.0.C: 1540: }
  3373                           ;CoilDet-V0.0.C: 1579: TRISC |= 0x08;
  3374  0002EC  8694               	bsf	3988,3,c	;volatile
  3375                           
  3376                           ; BSR set to: 0
  3377                           ;CoilDet-V0.0.C: 1580: TRISC |= 0x10;
  3378  0002EE  8894               	bsf	3988,4,c	;volatile
  3379                           
  3380                           ; BSR set to: 0
  3381                           ;CoilDet-V0.0.C: 1581: TRISC |= 0x20;
  3382  0002F0  8A94               	bsf	3988,5,c	;volatile
  3383                           
  3384                           ; BSR set to: 0
  3385                           ;CoilDet-V0.0.C: 1582: RC3 = 1;
  3386  0002F2  8682               	bsf	3970,3,c	;volatile
  3387                           
  3388                           ; BSR set to: 0
  3389                           ;CoilDet-V0.0.C: 1583: RC5 = 1;
  3390  0002F4  8A82               	bsf	3970,5,c	;volatile
  3391                           
  3392                           ; BSR set to: 0
  3393                           ;CoilDet-V0.0.C: 1584: RC4 = 1;
  3394  0002F6  8882               	bsf	3970,4,c	;volatile
  3395                           
  3396                           ; BSR set to: 0
  3397  0002F8  0012               	return	
  3398  0002FA                     __end_of_DTOperation:
  3399                           	opt stack 0
  3400                           tblptru	equ	0xFF8
  3401                           tblptrh	equ	0xFF7
  3402                           tblptrl	equ	0xFF6
  3403                           tablat	equ	0xFF5
  3404                           prodl	equ	0xFF3
  3405                           intcon	equ	0xFF2
  3406                           postinc0	equ	0xFEE
  3407                           wreg	equ	0xFE8
  3408                           indf1	equ	0xFE7
  3409                           postinc1	equ	0xFE6
  3410                           postdec1	equ	0xFE5
  3411                           fsr1h	equ	0xFE2
  3412                           fsr1l	equ	0xFE1
  3413                           indf2	equ	0xFDF
  3414                           postinc2	equ	0xFDE
  3415                           postdec2	equ	0xFDD
  3416                           fsr2h	equ	0xFDA
  3417                           fsr2l	equ	0xFD9
  3418                           status	equ	0xFD8
  3419                           
  3420 ;; *************** function _DTRecv *****************
  3421 ;; Defined at:
  3422 ;;		line 1081 in file "E:\working\coil\coil-v0.0-14\CoilDet\CoilDet-V0.0.C"
  3423 ;; Parameters:    Size  Location     Type
  3424 ;;  d_size          1    wreg     unsigned char 
  3425 ;;  dat             2    0[COMRAM] PTR unsigned char 
  3426 ;;		 -> DTOperation@dt_dat(7), DT_data(18), 
  3427 ;; Auto vars:     Size  Location     Type
  3428 ;;  d_size          1    5[COMRAM] unsigned char 
  3429 ;;  j               1    7[COMRAM] unsigned char 
  3430 ;;  i               1    6[COMRAM] unsigned char 
  3431 ;; Return value:  Size  Location     Type
  3432 ;;		None               void
  3433 ;; Registers used:
  3434 ;;		wreg, fsr2l, fsr2h, status,2, status,0
  3435 ;; Tracked objects:
  3436 ;;		On entry : 0/F
  3437 ;;		On exit  : 0/F
  3438 ;;		Unchanged: FFFFFFFF/0
  3439 ;; Data sizes:     COMRAM   BANK0   BANK1   BANK2   BANK3   BANK4   BANK5   BANK6   BANK7   BANK8   BANK9  BANK10  BANK1
      +1  BANK12  BANK13  BANK14
  3440 ;;      Params:         2       0       0       0       0       0       0       0       0       0       0       0       
      +0       0       0       0
  3441 ;;      Locals:         3       0       0       0       0       0       0       0       0       0       0       0       
      +0       0       0       0
  3442 ;;      Temps:          3       0       0       0       0       0       0       0       0       0       0       0       
      +0       0       0       0
  3443 ;;      Totals:         8       0       0       0       0       0       0       0       0       0       0       0       
      +0       0       0       0
  3444 ;;Total ram usage:        8 bytes
  3445 ;; Hardware stack levels used:    1
  3446 ;; Hardware stack levels required when called:    2
  3447 ;; This function calls:
  3448 ;;		Nothing
  3449 ;; This function is called by:
  3450 ;;		_DTOperation
  3451 ;; This function uses a non-reentrant model
  3452 ;;
  3453                           
  3454                           	psect	text12
  3455  000C0A                     __ptext12:
  3456                           	opt stack 0
  3457  000C0A                     _DTRecv:
  3458                           	opt stack 27
  3459                           
  3460                           ; BSR set to: 0
  3461                           ;DTRecv@d_size stored from wreg
  3462  000C0A  CFE8 F02D          	movff	wreg,DTRecv@d_size
  3463  000C0E  6A2F               	clrf	DTRecv@j,c
  3464                           
  3465                           ;CoilDet-V0.0.C: 1084: TRISC |= 0x08;
  3466                           
  3467                           ;CoilDet-V0.0.C: 1085: TRISC |= 0x10;
  3468                           
  3469                           ;CoilDet-V0.0.C: 1086: TRISC &= 0xDF;
  3470                           
  3471                           ;CoilDet-V0.0.C: 1088: RC3 = 1;
  3472                           
  3473                           ;CoilDet-V0.0.C: 1089: RC5 = 1;
  3474                           
  3475                           ;CoilDet-V0.0.C: 1090: RC4 = 1;
  3476  000C10  ECC5  F005         	call	PL12	;call to abstracted procedure
  3477                           
  3478                           ;CoilDet-V0.0.C: 1091: *dat = 0x00;
  3479  000C14  C028  FFD9         	movff	DTRecv@dat,fsr2l
  3480  000C18  C029  FFDA         	movff	DTRecv@dat+1,fsr2h
  3481  000C1C  6ADF               	clrf	indf2,c
  3482                           
  3483                           ;CoilDet-V0.0.C: 1092: for(i = 0 ;i<d_size;i++)
  3484  000C1E  6A2E               	clrf	DTRecv@i,c
  3485  000C20  D027               	goto	l2821
  3486  000C22                     l707:
  3487                           
  3488                           ;CoilDet-V0.0.C: 1093: {
  3489                           ;CoilDet-V0.0.C: 1094: for(j=0;j<8;j++)
  3490  000C22  6A2F               	clrf	DTRecv@j,c
  3491  000C24                     l710:
  3492  000C24  B682               	btfsc	3970,3,c	;volatile
  3493  000C26  D7FE               	goto	l710
  3494                           
  3495                           ;CoilDet-V0.0.C: 1098: if(RC4)
  3496  000C28  A882               	btfss	3970,4,c	;volatile
  3497  000C2A  D012               	goto	l2809
  3498                           
  3499                           ;CoilDet-V0.0.C: 1099: {
  3500                           ;CoilDet-V0.0.C: 1100: *dat |= (0x80>>j);
  3501  000C2C  C02F  F02A         	movff	DTRecv@j,??_DTRecv
  3502  000C30  0E80               	movlw	128
  3503  000C32  6E2B               	movwf	(??_DTRecv+1)& (0+255),c
  3504  000C34  6A2C               	clrf	(??_DTRecv+2)& (0+255),c
  3505  000C36  2A2A               	incf	??_DTRecv,f,c
  3506  000C38  D003               	goto	u2074
  3507  000C3A                     u2075:
  3508  000C3A  342C               	rlcf	??_DTRecv+2,w,c
  3509  000C3C  322C               	rrcf	??_DTRecv+2,f,c
  3510  000C3E  322B               	rrcf	??_DTRecv+1,f,c
  3511  000C40                     u2074:
  3512  000C40  2E2A               	decfsz	??_DTRecv,f,c
  3513  000C42  D7FB               	goto	u2075
  3514  000C44  C028  FFD9         	movff	DTRecv@dat,fsr2l
  3515  000C48  C029  FFDA         	movff	DTRecv@dat+1,fsr2h
  3516  000C4C  502B               	movf	??_DTRecv+1,w,c
  3517  000C4E  12DF               	iorwf	indf2,f,c
  3518  000C50                     l2809:
  3519                           
  3520                           ;CoilDet-V0.0.C: 1101: }
  3521                           ;CoilDet-V0.0.C: 1102: RC5 = 0;
  3522  000C50  9A82               	bcf	3970,5,c	;volatile
  3523  000C52                     l714:
  3524  000C52  A682               	btfss	3970,3,c	;volatile
  3525  000C54  D7FE               	goto	l714
  3526                           
  3527                           ;CoilDet-V0.0.C: 1104: RC5 = 1;
  3528  000C56  8A82               	bsf	3970,5,c	;volatile
  3529  000C58  2A2F               	incf	DTRecv@j,f,c
  3530  000C5A  0E07               	movlw	7
  3531  000C5C  642F               	cpfsgt	DTRecv@j,c
  3532  000C5E  D7E2               	goto	l710
  3533                           
  3534                           ;CoilDet-V0.0.C: 1105: }
  3535                           ;CoilDet-V0.0.C: 1107: dat++;
  3536  000C60  4A28               	infsnz	DTRecv@dat,f,c
  3537  000C62  2A29               	incf	DTRecv@dat+1,f,c
  3538                           
  3539                           ;CoilDet-V0.0.C: 1108: *dat = 0x00;
  3540  000C64  C028  FFD9         	movff	DTRecv@dat,fsr2l
  3541  000C68  C029  FFDA         	movff	DTRecv@dat+1,fsr2h
  3542  000C6C  6ADF               	clrf	indf2,c
  3543  000C6E  2A2E               	incf	DTRecv@i,f,c
  3544  000C70                     l2821:
  3545  000C70  502D               	movf	DTRecv@d_size,w,c
  3546  000C72  5C2E               	subwf	DTRecv@i,w,c
  3547  000C74  E3D6               	bnc	l707
  3548                           
  3549                           ;CoilDet-V0.0.C: 1109: }
  3550                           ;CoilDet-V0.0.C: 1114: TRISC |= 0x08;
  3551                           
  3552                           ;CoilDet-V0.0.C: 1115: TRISC |= 0x10;
  3553                           
  3554                           ;CoilDet-V0.0.C: 1116: TRISC &= 0xDF;
  3555                           
  3556                           ;CoilDet-V0.0.C: 1117: RC3 = 1;
  3557                           
  3558                           ;CoilDet-V0.0.C: 1118: RC5 =1;
  3559                           
  3560                           ;CoilDet-V0.0.C: 1119: RC4 = 1;
  3561  000C76  EFC5  F005         	goto	PL12	;call to abstracted procedure
  3562  000C7A                     __end_of_DTRecv:
  3563                           	opt stack 0
  3564                           tblptru	equ	0xFF8
  3565                           tblptrh	equ	0xFF7
  3566                           tblptrl	equ	0xFF6
  3567                           tablat	equ	0xFF5
  3568                           prodl	equ	0xFF3
  3569                           intcon	equ	0xFF2
  3570                           postinc0	equ	0xFEE
  3571                           wreg	equ	0xFE8
  3572                           indf1	equ	0xFE7
  3573                           postinc1	equ	0xFE6
  3574                           postdec1	equ	0xFE5
  3575                           fsr1h	equ	0xFE2
  3576                           fsr1l	equ	0xFE1
  3577                           indf2	equ	0xFDF
  3578                           postinc2	equ	0xFDE
  3579                           postdec2	equ	0xFDD
  3580                           fsr2h	equ	0xFDA
  3581                           fsr2l	equ	0xFD9
  3582                           status	equ	0xFD8
  3583                           
  3584 ;; *************** function _TransportDataProcess *****************
  3585 ;; Defined at:
  3586 ;;		line 1367 in file "E:\working\coil\coil-v0.0-14\CoilDet\CoilDet-V0.0.C"
  3587 ;; Parameters:    Size  Location     Type
  3588 ;;		None
  3589 ;; Auto vars:     Size  Location     Type
  3590 ;;		None
  3591 ;; Return value:  Size  Location     Type
  3592 ;;		None               void
  3593 ;; Registers used:
  3594 ;;		wreg, fsr2l, fsr2h, status,2, status,0, prodl, prodh, cstack
  3595 ;; Tracked objects:
  3596 ;;		On entry : 0/0
  3597 ;;		On exit  : F/0
  3598 ;;		Unchanged: 0/0
  3599 ;; Data sizes:     COMRAM   BANK0   BANK1   BANK2   BANK3   BANK4   BANK5   BANK6   BANK7   BANK8   BANK9  BANK10  BANK1
      +1  BANK12  BANK13  BANK14
  3600 ;;      Params:         0       0       0       0       0       0       0       0       0       0       0       0       
      +0       0       0       0
  3601 ;;      Locals:         0       0       0       0       0       0       0       0       0       0       0       0       
      +0       0       0       0
  3602 ;;      Temps:          0       0       0       0       0       0       0       0       0       0       0       0       
      +0       0       0       0
  3603 ;;      Totals:         0       0       0       0       0       0       0       0       0       0       0       0       
      +0       0       0       0
  3604 ;;Total ram usage:        0 bytes
  3605 ;; Hardware stack levels used:    1
  3606 ;; Hardware stack levels required when called:    6
  3607 ;; This function calls:
  3608 ;;		_GetCoilState
  3609 ;;		_ReadSensLv
  3610 ;;		_ReadFrequency
  3611 ;;		_ReadSensTable
  3612 ;;		_DTWriteSensLv
  3613 ;;		_DTWriteOSCSet
  3614 ;;		_DTWriteSens
  3615 ;;		_DTRest
  3616 ;;		_DTSend
  3617 ;;		_delayms
  3618 ;; This function is called by:
  3619 ;;		_DTOperation
  3620 ;; This function uses a non-reentrant model
  3621 ;;
  3622                           
  3623                           	psect	text13
  3624  000994                     __ptext13:
  3625                           	opt stack 0
  3626  000994                     _TransportDataProcess:
  3627                           	opt stack 23
  3628                           
  3629                           ;CoilDet-V0.0.C: 1368: DT_data1[0]=DT_command;
  3630  000994  C057  F0CA         	movff	_DT_command,_DT_data1
  3631                           
  3632                           ;CoilDet-V0.0.C: 1369: DT_data1[1]=DT_SDdata_counter;
  3633  000998  C056  F0CB         	movff	_DT_SDdata_counter,_DT_data1+1
  3634                           
  3635                           ;CoilDet-V0.0.C: 1370: switch (DT_command)
  3636  00099C  D02C               	goto	l2935
  3637  00099E                     l2915:
  3638                           
  3639                           ;CoilDet-V0.0.C: 1373: DT_data1[2]=det_result_output&DT_data[0];
  3640  00099E  5020               	movf	_det_result_output,w,c
  3641  0009A0  0100               	movlb	0	; () banked
  3642  0009A2  15B8               	andwf	_DT_data& (0+255),w,b
  3643  0009A4  6FCC               	movwf	(_DT_data1+2)& (0+255),b
  3644                           
  3645                           ;CoilDet-V0.0.C: 1374: break;
  3646  0009A6  D039               	goto	l2937
  3647  0009A8                     l2917:
  3648                           
  3649                           ;CoilDet-V0.0.C: 1376: GetCoilState();
  3650  0009A8  EC02  F008         	call	_GetCoilState	;wreg free
  3651                           
  3652                           ;CoilDet-V0.0.C: 1377: break;
  3653  0009AC  D036               	goto	l2937
  3654  0009AE                     l2919:
  3655                           
  3656                           ;CoilDet-V0.0.C: 1379: ReadSensLv(DT_data1+2);
  3657  0009AE  0100               	movlb	0	; () banked
  3658  0009B0  0E00               	movlw	high (_DT_data1+2)
  3659  0009B2  6E2F               	movwf	?_ReadSensLv+1,c
  3660  0009B4  0ECC               	movlw	low (_DT_data1+2)
  3661  0009B6  6E2E               	movwf	?_ReadSensLv,c
  3662  0009B8  ECF4  F007         	call	_ReadSensLv	;wreg free
  3663                           
  3664                           ;CoilDet-V0.0.C: 1380: break;
  3665  0009BC  D02E               	goto	l2937
  3666  0009BE                     l2921:
  3667                           
  3668                           ;CoilDet-V0.0.C: 1382: ReadFrequency(DT_data1+2);
  3669  0009BE  0100               	movlb	0	; () banked
  3670  0009C0  0ECC               	movlw	(_DT_data1+2)& (0+255)
  3671  0009C2  ECD7  F007         	call	_ReadFrequency
  3672                           
  3673                           ;CoilDet-V0.0.C: 1383: break;
  3674  0009C6  D029               	goto	l2937
  3675  0009C8                     l2923:
  3676                           
  3677                           ;CoilDet-V0.0.C: 1385: ReadSensTable(DT_data1+2);
  3678  0009C8  0100               	movlb	0	; () banked
  3679  0009CA  0ECC               	movlw	(_DT_data1+2)& (0+255)
  3680  0009CC  ECC8  F007         	call	_ReadSensTable
  3681                           
  3682                           ;CoilDet-V0.0.C: 1386: break;
  3683  0009D0  D024               	goto	l2937
  3684  0009D2                     l2925:
  3685                           
  3686                           ;CoilDet-V0.0.C: 1389: DTWriteSensLv(DT_data);
  3687  0009D2  0100               	movlb	0	; () banked
  3688  0009D4  0EB8               	movlw	_DT_data& (0+255)
  3689  0009D6  EC3F  F007         	call	_DTWriteSensLv
  3690                           
  3691                           ;CoilDet-V0.0.C: 1390: break;
  3692  0009DA  D01F               	goto	l2937
  3693  0009DC                     l2927:
  3694                           
  3695                           ;CoilDet-V0.0.C: 1392: DTWriteOSCSet(DT_data);
  3696  0009DC  0100               	movlb	0	; () banked
  3697  0009DE  0EB8               	movlw	_DT_data& (0+255)
  3698  0009E0  EC1E  F007         	call	_DTWriteOSCSet
  3699                           
  3700                           ;CoilDet-V0.0.C: 1393: break;
  3701  0009E4  D01A               	goto	l2937
  3702  0009E6                     l2929:
  3703                           
  3704                           ;CoilDet-V0.0.C: 1395: DTWriteSens(DT_data);
  3705  0009E6  0100               	movlb	0	; () banked
  3706  0009E8  0EB8               	movlw	_DT_data& (0+255)
  3707  0009EA  EC79  F007         	call	_DTWriteSens
  3708                           
  3709                           ;CoilDet-V0.0.C: 1396: break;
  3710  0009EE  D015               	goto	l2937
  3711  0009F0                     l2931:
  3712                           
  3713                           ;CoilDet-V0.0.C: 1398: DTRest();
  3714  0009F0  EC27  F008         	call	_DTRest	;wreg free
  3715                           
  3716                           ;CoilDet-V0.0.C: 1399: break;
  3717  0009F4  D012               	goto	l2937
  3718  0009F6                     l2935:
  3719  0009F6  5057               	movf	_DT_command,w,c
  3720                           
  3721                           ; Switch size 1, requested type "space"
  3722                           ; Number of cases is 9, Range of values is 0 to 170
  3723                           ; switch strategies available:
  3724                           ; Name         Instructions Cycles
  3725                           ; simple_byte           28    15 (average)
  3726                           ;	Chosen strategy is simple_byte
  3727  0009F8  E0D2               	bz	l2915
  3728  0009FA  0A01               	xorlw	1	; case 1
  3729  0009FC  E0D5               	bz	l2917
  3730  0009FE  0A03               	xorlw	3	; case 2
  3731  000A00  E0D6               	bz	l2919
  3732  000A02  0A01               	xorlw	1	; case 3
  3733  000A04  E0DC               	bz	l2921
  3734  000A06  0A07               	xorlw	7	; case 4
  3735  000A08  E0DF               	bz	l2923
  3736  000A0A  0A01               	xorlw	1	; case 5
  3737  000A0C  E0E2               	bz	l2925
  3738  000A0E  0A03               	xorlw	3	; case 6
  3739  000A10  E0E5               	bz	l2927
  3740  000A12  0A01               	xorlw	1	; case 7
  3741  000A14  E0E8               	bz	l2929
  3742  000A16  0AAD               	xorlw	173	; case 170
  3743  000A18  E0EB               	bz	l2931
  3744  000A1A                     l2937:
  3745                           
  3746                           ;CoilDet-V0.0.C: 1416: DTSend(DT_SDdata_counter+2,DT_data1);
  3747  000A1A  0100               	movlb	0	; () banked
  3748  000A1C  0ECA               	movlw	low _DT_data1
  3749  000A1E  6E28               	movwf	?_DTSend,c
  3750  000A20  5056               	movf	_DT_SDdata_counter,w,c
  3751  000A22  0F02               	addlw	2
  3752  000A24  EC92  F005         	call	_DTSend
  3753                           
  3754                           ; BSR set to: 0
  3755                           ;CoilDet-V0.0.C: 1418: delayms(10);
  3756  000A28  6A2D               	clrf	?_delayms+1,c
  3757  000A2A  0E0A               	movlw	10
  3758  000A2C  6E2C               	movwf	?_delayms,c
  3759  000A2E  EFA6  F007         	goto	_delayms	;wreg free
  3760  000A32                     __end_of_TransportDataProcess:
  3761                           	opt stack 0
  3762                           tblptru	equ	0xFF8
  3763                           tblptrh	equ	0xFF7
  3764                           tblptrl	equ	0xFF6
  3765                           tablat	equ	0xFF5
  3766                           prodl	equ	0xFF3
  3767                           intcon	equ	0xFF2
  3768                           postinc0	equ	0xFEE
  3769                           wreg	equ	0xFE8
  3770                           indf1	equ	0xFE7
  3771                           postinc1	equ	0xFE6
  3772                           postdec1	equ	0xFE5
  3773                           fsr1h	equ	0xFE2
  3774                           fsr1l	equ	0xFE1
  3775                           indf2	equ	0xFDF
  3776                           postinc2	equ	0xFDE
  3777                           postdec2	equ	0xFDD
  3778                           fsr2h	equ	0xFDA
  3779                           fsr2l	equ	0xFD9
  3780                           status	equ	0xFD8
  3781                           
  3782 ;; *************** function _delayms *****************
  3783 ;; Defined at:
  3784 ;;		line 120 in file "E:\working\coil\coil-v0.0-14\CoilDet\mcu.h"
  3785 ;; Parameters:    Size  Location     Type
  3786 ;;  ms              2    4[COMRAM] unsigned int 
  3787 ;; Auto vars:     Size  Location     Type
  3788 ;;  i               2    6[COMRAM] unsigned int 
  3789 ;; Return value:  Size  Location     Type
  3790 ;;		None               void
  3791 ;; Registers used:
  3792 ;;		wreg, status,2, status,0, cstack
  3793 ;; Tracked objects:
  3794 ;;		On entry : 0/0
  3795 ;;		On exit  : 0/0
  3796 ;;		Unchanged: FFFFFFFF/0
  3797 ;; Data sizes:     COMRAM   BANK0   BANK1   BANK2   BANK3   BANK4   BANK5   BANK6   BANK7   BANK8   BANK9  BANK10  BANK1
      +1  BANK12  BANK13  BANK14
  3798 ;;      Params:         2       0       0       0       0       0       0       0       0       0       0       0       
      +0       0       0       0
  3799 ;;      Locals:         2       0       0       0       0       0       0       0       0       0       0       0       
      +0       0       0       0
  3800 ;;      Temps:          0       0       0       0       0       0       0       0       0       0       0       0       
      +0       0       0       0
  3801 ;;      Totals:         4       0       0       0       0       0       0       0       0       0       0       0       
      +0       0       0       0
  3802 ;;Total ram usage:        4 bytes
  3803 ;; Hardware stack levels used:    1
  3804 ;; Hardware stack levels required when called:    3
  3805 ;; This function calls:
  3806 ;;		_delayus
  3807 ;; This function is called by:
  3808 ;;		_TransportDataProcess
  3809 ;;		_main
  3810 ;; This function uses a non-reentrant model
  3811 ;;
  3812                           
  3813                           	psect	text14
  3814  000F4C                     __ptext14:
  3815                           	opt stack 0
  3816  000F4C                     _delayms:
  3817                           	opt stack 25
  3818                           
  3819                           ;mcu.h: 121: unsigned int i;
  3820                           ;mcu.h: 123: for(i=0;i<ms;i++)
  3821                           
  3822                           ; BSR set to: 0
  3823  000F4C  6A2E               	clrf	delayms@i,c
  3824  000F4E  6A2F               	clrf	delayms@i+1,c
  3825  000F50  D008               	goto	l2333
  3826  000F52                     l2329:
  3827                           
  3828                           ;mcu.h: 124: {
  3829                           ;mcu.h: 125: delayus(997);
  3830  000F52  0E03               	movlw	3
  3831  000F54  6E29               	movwf	?_delayus+1,c
  3832  000F56  0EE5               	movlw	229
  3833  000F58  6E28               	movwf	?_delayus,c
  3834  000F5A  ECB8  F007         	call	_delayus	;wreg free
  3835  000F5E  4A2E               	infsnz	delayms@i,f,c
  3836  000F60  2A2F               	incf	delayms@i+1,f,c
  3837  000F62                     l2333:
  3838  000F62  502C               	movf	delayms@ms,w,c
  3839  000F64  5C2E               	subwf	delayms@i,w,c
  3840  000F66  502D               	movf	delayms@ms+1,w,c
  3841  000F68  582F               	subwfb	delayms@i+1,w,c
  3842  000F6A  B0D8               	btfsc	status,0,c
  3843  000F6C  0012               	return	
  3844  000F6E  D7F1               	goto	l2329
  3845  000F70                     __end_of_delayms:
  3846                           	opt stack 0
  3847                           tblptru	equ	0xFF8
  3848                           tblptrh	equ	0xFF7
  3849                           tblptrl	equ	0xFF6
  3850                           tablat	equ	0xFF5
  3851                           prodl	equ	0xFF3
  3852                           intcon	equ	0xFF2
  3853                           postinc0	equ	0xFEE
  3854                           wreg	equ	0xFE8
  3855                           indf1	equ	0xFE7
  3856                           postinc1	equ	0xFE6
  3857                           postdec1	equ	0xFE5
  3858                           fsr1h	equ	0xFE2
  3859                           fsr1l	equ	0xFE1
  3860                           indf2	equ	0xFDF
  3861                           postinc2	equ	0xFDE
  3862                           postdec2	equ	0xFDD
  3863                           fsr2h	equ	0xFDA
  3864                           fsr2l	equ	0xFD9
  3865                           status	equ	0xFD8
  3866                           
  3867 ;; *************** function _DTSend *****************
  3868 ;; Defined at:
  3869 ;;		line 1035 in file "E:\working\coil\coil-v0.0-14\CoilDet\CoilDet-V0.0.C"
  3870 ;; Parameters:    Size  Location     Type
  3871 ;;  d_size          1    wreg     unsigned char 
  3872 ;;  dat             1    0[COMRAM] PTR unsigned char 
  3873 ;;		 -> DT_data1(18), 
  3874 ;; Auto vars:     Size  Location     Type
  3875 ;;  d_size          1    5[COMRAM] unsigned char 
  3876 ;;  j               1    7[COMRAM] unsigned char 
  3877 ;;  i               1    6[COMRAM] unsigned char 
  3878 ;; Return value:  Size  Location     Type
  3879 ;;		None               void
  3880 ;; Registers used:
  3881 ;;		wreg, fsr2l, fsr2h, status,2, status,0
  3882 ;; Tracked objects:
  3883 ;;		On entry : F/0
  3884 ;;		On exit  : F/0
  3885 ;;		Unchanged: FFFFFFF0/0
  3886 ;; Data sizes:     COMRAM   BANK0   BANK1   BANK2   BANK3   BANK4   BANK5   BANK6   BANK7   BANK8   BANK9  BANK10  BANK1
      +1  BANK12  BANK13  BANK14
  3887 ;;      Params:         1       0       0       0       0       0       0       0       0       0       0       0       
      +0       0       0       0
  3888 ;;      Locals:         3       0       0       0       0       0       0       0       0       0       0       0       
      +0       0       0       0
  3889 ;;      Temps:          4       0       0       0       0       0       0       0       0       0       0       0       
      +0       0       0       0
  3890 ;;      Totals:         8       0       0       0       0       0       0       0       0       0       0       0       
      +0       0       0       0
  3891 ;;Total ram usage:        8 bytes
  3892 ;; Hardware stack levels used:    1
  3893 ;; Hardware stack levels required when called:    2
  3894 ;; This function calls:
  3895 ;;		Nothing
  3896 ;; This function is called by:
  3897 ;;		_TransportDataProcess
  3898 ;;		_DTOperation
  3899 ;; This function uses a non-reentrant model
  3900 ;;
  3901                           
  3902                           	psect	text15
  3903  000B24                     __ptext15:
  3904                           	opt stack 0
  3905  000B24                     _DTSend:
  3906                           	opt stack 27
  3907                           
  3908                           ;DTSend@d_size stored from wreg
  3909  000B24  CFE8 F02D          	movff	wreg,DTSend@d_size
  3910                           
  3911                           ; BSR set to: 0
  3912                           ;CoilDet-V0.0.C: 1037: unsigned char j=0x00;
  3913  000B28  6A2F               	clrf	DTSend@j,c
  3914                           
  3915                           ; BSR set to: 0
  3916                           ;CoilDet-V0.0.C: 1039: TRISC |= 0x08;
  3917  000B2A  8694               	bsf	3988,3,c	;volatile
  3918                           
  3919                           ;CoilDet-V0.0.C: 1040: TRISC &= 0xEF;
  3920  000B2C  9894               	bcf	3988,4,c	;volatile
  3921                           
  3922                           ;CoilDet-V0.0.C: 1041: TRISC &= 0xDF;
  3923  000B2E  9A94               	bcf	3988,5,c	;volatile
  3924                           
  3925                           ; BSR set to: 0
  3926                           ;CoilDet-V0.0.C: 1043: RC3 = 1;
  3927  000B30  8682               	bsf	3970,3,c	;volatile
  3928                           
  3929                           ; BSR set to: 0
  3930                           ;CoilDet-V0.0.C: 1044: RC5 = 1;
  3931  000B32  8A82               	bsf	3970,5,c	;volatile
  3932                           
  3933                           ; BSR set to: 0
  3934                           ;CoilDet-V0.0.C: 1045: RC4 = 1;
  3935  000B34  8882               	bsf	3970,4,c	;volatile
  3936                           
  3937                           ; BSR set to: 0
  3938                           ;CoilDet-V0.0.C: 1049: for(i = 0 ;i<d_size;i++)
  3939  000B36  6A2E               	clrf	DTSend@i,c
  3940  000B38  D024               	goto	l2779
  3941  000B3A                     l691:
  3942                           
  3943                           ; BSR set to: 0
  3944                           ;CoilDet-V0.0.C: 1050: {
  3945                           ;CoilDet-V0.0.C: 1051: for(j=0;j<8;j++)
  3946  000B3A  6A2F               	clrf	DTSend@j,c
  3947  000B3C                     l694:
  3948                           
  3949                           ; BSR set to: 0
  3950  000B3C  B682               	btfsc	3970,3,c	;volatile
  3951  000B3E  D7FE               	goto	l694
  3952                           
  3953                           ; BSR set to: 0
  3954                           ;CoilDet-V0.0.C: 1054: if((*dat)&(0x80>>j))
  3955  000B40  5028               	movf	DTSend@dat,w,c
  3956  000B42  6ED9               	movwf	fsr2l,c
  3957  000B44  6ADA               	clrf	fsr2h,c
  3958  000B46  50DF               	movf	indf2,w,c
  3959  000B48  6E29               	movwf	??_DTSend& (0+255),c
  3960  000B4A  C02F  F02A         	movff	DTSend@j,??_DTSend+1
  3961  000B4E  0E80               	movlw	128
  3962  000B50  6E2B               	movwf	(??_DTSend+2)& (0+255),c
  3963  000B52  6A2C               	clrf	(??_DTSend+3)& (0+255),c
  3964  000B54  2A2A               	incf	??_DTSend+1,f,c
  3965  000B56  D003               	goto	u2004
  3966  000B58                     u2005:
  3967  000B58  342C               	rlcf	??_DTSend+3,w,c
  3968  000B5A  322C               	rrcf	??_DTSend+3,f,c
  3969  000B5C  322B               	rrcf	??_DTSend+2,f,c
  3970  000B5E                     u2004:
  3971  000B5E  2E2A               	decfsz	??_DTSend+1,f,c
  3972  000B60  D7FB               	goto	u2005
  3973  000B62  502B               	movf	??_DTSend+2,w,c
  3974  000B64  1429               	andwf	??_DTSend,w,c
  3975  000B66  E002               	bz	l697
  3976                           
  3977                           ; BSR set to: 0
  3978                           ;CoilDet-V0.0.C: 1055: {
  3979                           ;CoilDet-V0.0.C: 1056: RC4 = 1;
  3980  000B68  8882               	bsf	3970,4,c	;volatile
  3981                           
  3982                           ;CoilDet-V0.0.C: 1057: }
  3983  000B6A  D001               	goto	l698
  3984  000B6C                     l697:
  3985                           
  3986                           ; BSR set to: 0
  3987                           ;CoilDet-V0.0.C: 1058: else
  3988                           ;CoilDet-V0.0.C: 1059: {
  3989                           ;CoilDet-V0.0.C: 1060: RC4 = 0;
  3990  000B6C  9882               	bcf	3970,4,c	;volatile
  3991  000B6E                     l698:
  3992                           
  3993                           ; BSR set to: 0
  3994                           ;CoilDet-V0.0.C: 1061: }
  3995                           ;CoilDet-V0.0.C: 1062: RC5 = 0;
  3996  000B6E  9A82               	bcf	3970,5,c	;volatile
  3997  000B70                     l699:
  3998                           
  3999                           ; BSR set to: 0
  4000  000B70  A682               	btfss	3970,3,c	;volatile
  4001  000B72  D7FE               	goto	l699
  4002                           
  4003                           ; BSR set to: 0
  4004                           ;CoilDet-V0.0.C: 1064: RC5 = 1;
  4005  000B74  8A82               	bsf	3970,5,c	;volatile
  4006                           
  4007                           ; BSR set to: 0
  4008  000B76  2A2F               	incf	DTSend@j,f,c
  4009                           
  4010                           ; BSR set to: 0
  4011  000B78  0E07               	movlw	7
  4012  000B7A  642F               	cpfsgt	DTSend@j,c
  4013  000B7C  D7DF               	goto	l694
  4014                           
  4015                           ; BSR set to: 0
  4016                           ;CoilDet-V0.0.C: 1065: }
  4017                           ;CoilDet-V0.0.C: 1066: dat++;
  4018  000B7E  2A28               	incf	DTSend@dat,f,c
  4019  000B80  2A2E               	incf	DTSend@i,f,c
  4020  000B82                     l2779:
  4021                           
  4022                           ; BSR set to: 0
  4023  000B82  502D               	movf	DTSend@d_size,w,c
  4024  000B84  5C2E               	subwf	DTSend@i,w,c
  4025  000B86  E3D9               	bnc	l691
  4026                           
  4027                           ; BSR set to: 0
  4028                           ;CoilDet-V0.0.C: 1067: }
  4029                           ;CoilDet-V0.0.C: 1069: TRISC |= 0x08;
  4030                           
  4031                           ;CoilDet-V0.0.C: 1070: TRISC |= 0x10;
  4032                           
  4033                           ;CoilDet-V0.0.C: 1071: TRISC &= 0xDF;
  4034                           
  4035                           ; BSR set to: 0
  4036                           ;CoilDet-V0.0.C: 1072: RC3 = 1;
  4037                           
  4038                           ; BSR set to: 0
  4039                           ;CoilDet-V0.0.C: 1073: RC5 = 1;
  4040                           
  4041                           ; BSR set to: 0
  4042                           ;CoilDet-V0.0.C: 1074: RC4 = 1;
  4043  000B88  D000               	goto	PL12	;call to abstracted procedure
  4044  000B8A                     __end_of_DTSend:
  4045                           	opt stack 0
  4046  000B8A                     PL12:
  4047  000B8A  8694               	bsf	3988,3,c	;volatile
  4048  000B8C  8894               	bsf	3988,4,c	;volatile
  4049  000B8E  9A94               	bcf	3988,5,c	;volatile
  4050  000B90  8682               	bsf	3970,3,c	;volatile
  4051  000B92  8A82               	bsf	3970,5,c	;volatile
  4052  000B94  8882               	bsf	3970,4,c	;volatile
  4053  000B96  0012               	return	
  4054                           tblptru	equ	0xFF8
  4055                           tblptrh	equ	0xFF7
  4056                           tblptrl	equ	0xFF6
  4057                           tablat	equ	0xFF5
  4058                           prodl	equ	0xFF3
  4059                           intcon	equ	0xFF2
  4060                           postinc0	equ	0xFEE
  4061                           wreg	equ	0xFE8
  4062                           indf1	equ	0xFE7
  4063                           postinc1	equ	0xFE6
  4064                           postdec1	equ	0xFE5
  4065                           fsr1h	equ	0xFE2
  4066                           fsr1l	equ	0xFE1
  4067                           indf2	equ	0xFDF
  4068                           postinc2	equ	0xFDE
  4069                           postdec2	equ	0xFDD
  4070                           fsr2h	equ	0xFDA
  4071                           fsr2l	equ	0xFD9
  4072                           status	equ	0xFD8
  4073                           
  4074 ;; *************** function _ReadFrequency *****************
  4075 ;; Defined at:
  4076 ;;		line 1166 in file "E:\working\coil\coil-v0.0-14\CoilDet\CoilDet-V0.0.C"
  4077 ;; Parameters:    Size  Location     Type
  4078 ;;  dat             1    wreg     PTR unsigned char 
  4079 ;;		 -> DT_data1(18), 
  4080 ;; Auto vars:     Size  Location     Type
  4081 ;;  dat             1    6[COMRAM] PTR unsigned char 
  4082 ;;		 -> DT_data1(18), 
  4083 ;; Return value:  Size  Location     Type
  4084 ;;		None               void
  4085 ;; Registers used:
  4086 ;;		wreg, fsr2l, fsr2h, status,2, status,0, cstack
  4087 ;; Tracked objects:
  4088 ;;		On entry : F/0
  4089 ;;		On exit  : 0/0
  4090 ;;		Unchanged: 0/0
  4091 ;; Data sizes:     COMRAM   BANK0   BANK1   BANK2   BANK3   BANK4   BANK5   BANK6   BANK7   BANK8   BANK9  BANK10  BANK1
      +1  BANK12  BANK13  BANK14
  4092 ;;      Params:         0       0       0       0       0       0       0       0       0       0       0       0       
      +0       0       0       0
  4093 ;;      Locals:         1       0       0       0       0       0       0       0       0       0       0       0       
      +0       0       0       0
  4094 ;;      Temps:          0       0       0       0       0       0       0       0       0       0       0       0       
      +0       0       0       0
  4095 ;;      Totals:         1       0       0       0       0       0       0       0       0       0       0       0       
      +0       0       0       0
  4096 ;;Total ram usage:        1 bytes
  4097 ;; Hardware stack levels used:    1
  4098 ;; Hardware stack levels required when called:    3
  4099 ;; This function calls:
  4100 ;;		_EEPROMRead
  4101 ;; This function is called by:
  4102 ;;		_TransportDataProcess
  4103 ;; This function uses a non-reentrant model
  4104 ;;
  4105                           
  4106                           	psect	text16
  4107  000FAE                     __ptext16:
  4108                           	opt stack 0
  4109  000FAE                     _ReadFrequency:
  4110                           	opt stack 25
  4111                           
  4112                           ; BSR set to: 0
  4113                           ;ReadFrequency@dat stored from wreg
  4114  000FAE  CFE8 F02E          	movff	wreg,ReadFrequency@dat
  4115                           
  4116                           ; BSR set to: 0
  4117                           ;CoilDet-V0.0.C: 1168: eeprom_addr = 0x0019;
  4118  000FB2  6A5A               	clrf	_eeprom_addr+1,c
  4119  000FB4  0E19               	movlw	25
  4120  000FB6  6E59               	movwf	_eeprom_addr,c
  4121                           
  4122                           ;CoilDet-V0.0.C: 1169: eeprom_num = 2;
  4123  000FB8  0E02               	movlw	2
  4124  000FBA  6E5B               	movwf	_eeprom_num,c
  4125                           
  4126                           ; BSR set to: 0
  4127                           ;CoilDet-V0.0.C: 1170: EEPROMRead(&eeprom_addr,&eeprom_num,dat);
  4128  000FBC  0E5B               	movlw	low _eeprom_num
  4129  000FBE  6E28               	movwf	?_EEPROMRead,c
  4130  000FC0  C02E  F029         	movff	ReadFrequency@dat,?_EEPROMRead+1
  4131  000FC4  6A2A               	clrf	?_EEPROMRead+2,c
  4132  000FC6  0E59               	movlw	_eeprom_addr& (0+255)
  4133  000FC8  EF72  F006         	goto	_EEPROMRead
  4134  000FCC                     __end_of_ReadFrequency:
  4135                           	opt stack 0
  4136                           tblptru	equ	0xFF8
  4137                           tblptrh	equ	0xFF7
  4138                           tblptrl	equ	0xFF6
  4139                           tablat	equ	0xFF5
  4140                           prodl	equ	0xFF3
  4141                           intcon	equ	0xFF2
  4142                           postinc0	equ	0xFEE
  4143                           wreg	equ	0xFE8
  4144                           indf1	equ	0xFE7
  4145                           postinc1	equ	0xFE6
  4146                           postdec1	equ	0xFE5
  4147                           fsr1h	equ	0xFE2
  4148                           fsr1l	equ	0xFE1
  4149                           indf2	equ	0xFDF
  4150                           postinc2	equ	0xFDE
  4151                           postdec2	equ	0xFDD
  4152                           fsr2h	equ	0xFDA
  4153                           fsr2l	equ	0xFD9
  4154                           status	equ	0xFD8
  4155                           
  4156 ;; *************** function _DTWriteSensLv *****************
  4157 ;; Defined at:
  4158 ;;		line 1195 in file "E:\working\coil\coil-v0.0-14\CoilDet\CoilDet-V0.0.C"
  4159 ;; Parameters:    Size  Location     Type
  4160 ;;  dat             1    wreg     PTR unsigned char 
  4161 ;;		 -> DT_data(18), 
  4162 ;; Auto vars:     Size  Location     Type
  4163 ;;  dat             1    8[COMRAM] PTR unsigned char 
  4164 ;;		 -> DT_data(18), 
  4165 ;; Return value:  Size  Location     Type
  4166 ;;		None               void
  4167 ;; Registers used:
  4168 ;;		wreg, fsr2l, fsr2h, status,2, status,0, cstack
  4169 ;; Tracked objects:
  4170 ;;		On entry : F/0
  4171 ;;		On exit  : F/0
  4172 ;;		Unchanged: 0/0
  4173 ;; Data sizes:     COMRAM   BANK0   BANK1   BANK2   BANK3   BANK4   BANK5   BANK6   BANK7   BANK8   BANK9  BANK10  BANK1
      +1  BANK12  BANK13  BANK14
  4174 ;;      Params:         0       0       0       0       0       0       0       0       0       0       0       0       
      +0       0       0       0
  4175 ;;      Locals:         1       0       0       0       0       0       0       0       0       0       0       0       
      +0       0       0       0
  4176 ;;      Temps:          0       0       0       0       0       0       0       0       0       0       0       0       
      +0       0       0       0
  4177 ;;      Totals:         1       0       0       0       0       0       0       0       0       0       0       0       
      +0       0       0       0
  4178 ;;Total ram usage:        1 bytes
  4179 ;; Hardware stack levels used:    1
  4180 ;; Hardware stack levels required when called:    4
  4181 ;; This function calls:
  4182 ;;		_EEPROMWrite
  4183 ;;		_ReadSensLv
  4184 ;;		_SetSens
  4185 ;; This function is called by:
  4186 ;;		_TransportDataProcess
  4187 ;; This function uses a non-reentrant model
  4188 ;;
  4189                           
  4190                           	psect	text17
  4191  000E7E                     __ptext17:
  4192                           	opt stack 0
  4193  000E7E                     _DTWriteSensLv:
  4194                           	opt stack 24
  4195                           
  4196                           ;DTWriteSensLv@dat stored from wreg
  4197  000E7E  CFE8 F030          	movff	wreg,DTWriteSensLv@dat
  4198                           
  4199                           ; BSR set to: 0
  4200                           ;CoilDet-V0.0.C: 1197: eeprom_addr = 0x0005;
  4201  000E82  6A5A               	clrf	_eeprom_addr+1,c
  4202  000E84  0E05               	movlw	5
  4203  000E86  6E59               	movwf	_eeprom_addr,c
  4204                           
  4205                           ;CoilDet-V0.0.C: 1198: eeprom_num = 4;
  4206  000E88  0E04               	movlw	4
  4207  000E8A  6E5B               	movwf	_eeprom_num,c
  4208                           
  4209                           ; BSR set to: 0
  4210                           ;CoilDet-V0.0.C: 1200: EEPROMWrite(&eeprom_addr,&eeprom_num,dat);
  4211  000E8C  0E5B               	movlw	low _eeprom_num
  4212  000E8E  6E28               	movwf	?_EEPROMWrite,c
  4213  000E90  C030  F029         	movff	DTWriteSensLv@dat,?_EEPROMWrite+1
  4214  000E94  0E59               	movlw	_eeprom_addr& (0+255)
  4215  000E96  EC58  F005         	call	_EEPROMWrite
  4216                           
  4217                           ;CoilDet-V0.0.C: 1201: ReadSensLv(det_current_sens_lv);
  4218  000E9A  0E22               	movlw	low _det_current_sens_lv
  4219  000E9C  6E2E               	movwf	?_ReadSensLv,c
  4220  000E9E  0E00               	movlw	high _det_current_sens_lv
  4221  000EA0  6E2F               	movwf	?_ReadSensLv+1,c
  4222  000EA2  0E0F               	movlw	15
  4223  000EA4  6E2F               	movwf	?_ReadSensLv+1,c
  4224  000EA6  0E5F               	movlw	__accesstop+-1
  4225  000EA8  642E               	cpfsgt	?_ReadSensLv,c
  4226  000EAA  6A2F               	clrf	?_ReadSensLv+1,c
  4227  000EAC  ECF4  F007         	call	_ReadSensLv	;wreg free
  4228                           
  4229                           ;CoilDet-V0.0.C: 1202: SetSens(det_current_sens_table,det_current_sens_lv);
  4230  000EB0  0E22               	movlw	low _det_current_sens_lv
  4231  000EB2  6E28               	movwf	?_SetSens,c
  4232  000EB4  0100               	movlb	0	; () banked
  4233  000EB6  0EDC               	movlw	_det_current_sens_table& (0+255)
  4234  000EB8  EF3D  F006         	goto	_SetSens
  4235  000EBC                     __end_of_DTWriteSensLv:
  4236                           	opt stack 0
  4237                           tblptru	equ	0xFF8
  4238                           tblptrh	equ	0xFF7
  4239                           tblptrl	equ	0xFF6
  4240                           tablat	equ	0xFF5
  4241                           prodl	equ	0xFF3
  4242                           intcon	equ	0xFF2
  4243                           postinc0	equ	0xFEE
  4244                           wreg	equ	0xFE8
  4245                           indf1	equ	0xFE7
  4246                           postinc1	equ	0xFE6
  4247                           postdec1	equ	0xFE5
  4248                           fsr1h	equ	0xFE2
  4249                           fsr1l	equ	0xFE1
  4250                           indf2	equ	0xFDF
  4251                           postinc2	equ	0xFDE
  4252                           postdec2	equ	0xFDD
  4253                           fsr2h	equ	0xFDA
  4254                           fsr2l	equ	0xFD9
  4255                           status	equ	0xFD8
  4256                           
  4257 ;; *************** function _ReadSensLv *****************
  4258 ;; Defined at:
  4259 ;;		line 1176 in file "E:\working\coil\coil-v0.0-14\CoilDet\CoilDet-V0.0.C"
  4260 ;; Parameters:    Size  Location     Type
  4261 ;;  dat             2    6[COMRAM] PTR unsigned char 
  4262 ;;		 -> det_current_sens_lv(4), DT_data1(18), 
  4263 ;; Auto vars:     Size  Location     Type
  4264 ;;		None
  4265 ;; Return value:  Size  Location     Type
  4266 ;;		None               void
  4267 ;; Registers used:
  4268 ;;		wreg, fsr2l, fsr2h, status,2, status,0, cstack
  4269 ;; Tracked objects:
  4270 ;;		On entry : 0/0
  4271 ;;		On exit  : 0/0
  4272 ;;		Unchanged: 0/0
  4273 ;; Data sizes:     COMRAM   BANK0   BANK1   BANK2   BANK3   BANK4   BANK5   BANK6   BANK7   BANK8   BANK9  BANK10  BANK1
      +1  BANK12  BANK13  BANK14
  4274 ;;      Params:         2       0       0       0       0       0       0       0       0       0       0       0       
      +0       0       0       0
  4275 ;;      Locals:         0       0       0       0       0       0       0       0       0       0       0       0       
      +0       0       0       0
  4276 ;;      Temps:          0       0       0       0       0       0       0       0       0       0       0       0       
      +0       0       0       0
  4277 ;;      Totals:         2       0       0       0       0       0       0       0       0       0       0       0       
      +0       0       0       0
  4278 ;;Total ram usage:        2 bytes
  4279 ;; Hardware stack levels used:    1
  4280 ;; Hardware stack levels required when called:    3
  4281 ;; This function calls:
  4282 ;;		_EEPROMRead
  4283 ;; This function is called by:
  4284 ;;		_DTWriteSensLv
  4285 ;;		_TransportDataProcess
  4286 ;; This function uses a non-reentrant model
  4287 ;;
  4288                           
  4289                           	psect	text18
  4290  000FE8                     __ptext18:
  4291                           	opt stack 0
  4292  000FE8                     _ReadSensLv:
  4293                           	opt stack 24
  4294                           
  4295                           ;CoilDet-V0.0.C: 1178: eeprom_addr = 0x0005;
  4296                           
  4297                           ; BSR set to: 0
  4298  000FE8  6A5A               	clrf	_eeprom_addr+1,c
  4299  000FEA  0E05               	movlw	5
  4300  000FEC  6E59               	movwf	_eeprom_addr,c
  4301                           
  4302                           ;CoilDet-V0.0.C: 1179: eeprom_num = 4;
  4303  000FEE  0E04               	movlw	4
  4304  000FF0  6E5B               	movwf	_eeprom_num,c
  4305                           
  4306                           ;CoilDet-V0.0.C: 1180: EEPROMRead(&eeprom_addr,&eeprom_num,dat);
  4307  000FF2  0E5B               	movlw	low _eeprom_num
  4308  000FF4  6E28               	movwf	?_EEPROMRead,c
  4309  000FF6  C02E  F029         	movff	ReadSensLv@dat,?_EEPROMRead+1
  4310  000FFA  C02F  F02A         	movff	ReadSensLv@dat+1,?_EEPROMRead+2
  4311  000FFE  0E59               	movlw	_eeprom_addr& (0+255)
  4312  001000  EF72  F006         	goto	_EEPROMRead
  4313  001004                     __end_of_ReadSensLv:
  4314                           	opt stack 0
  4315                           tblptru	equ	0xFF8
  4316                           tblptrh	equ	0xFF7
  4317                           tblptrl	equ	0xFF6
  4318                           tablat	equ	0xFF5
  4319                           prodl	equ	0xFF3
  4320                           intcon	equ	0xFF2
  4321                           postinc0	equ	0xFEE
  4322                           wreg	equ	0xFE8
  4323                           indf1	equ	0xFE7
  4324                           postinc1	equ	0xFE6
  4325                           postdec1	equ	0xFE5
  4326                           fsr1h	equ	0xFE2
  4327                           fsr1l	equ	0xFE1
  4328                           indf2	equ	0xFDF
  4329                           postinc2	equ	0xFDE
  4330                           postdec2	equ	0xFDD
  4331                           fsr2h	equ	0xFDA
  4332                           fsr2l	equ	0xFD9
  4333                           status	equ	0xFD8
  4334                           
  4335 ;; *************** function _DTWriteSens *****************
  4336 ;; Defined at:
  4337 ;;		line 1212 in file "E:\working\coil\coil-v0.0-14\CoilDet\CoilDet-V0.0.C"
  4338 ;; Parameters:    Size  Location     Type
  4339 ;;  dat             1    wreg     PTR unsigned char 
  4340 ;;		 -> DT_data(18), 
  4341 ;; Auto vars:     Size  Location     Type
  4342 ;;  dat             1    7[COMRAM] PTR unsigned char 
  4343 ;;		 -> DT_data(18), 
  4344 ;; Return value:  Size  Location     Type
  4345 ;;		None               void
  4346 ;; Registers used:
  4347 ;;		wreg, fsr2l, fsr2h, status,2, status,0, cstack
  4348 ;; Tracked objects:
  4349 ;;		On entry : F/0
  4350 ;;		On exit  : F/0
  4351 ;;		Unchanged: 0/0
  4352 ;; Data sizes:     COMRAM   BANK0   BANK1   BANK2   BANK3   BANK4   BANK5   BANK6   BANK7   BANK8   BANK9  BANK10  BANK1
      +1  BANK12  BANK13  BANK14
  4353 ;;      Params:         0       0       0       0       0       0       0       0       0       0       0       0       
      +0       0       0       0
  4354 ;;      Locals:         1       0       0       0       0       0       0       0       0       0       0       0       
      +0       0       0       0
  4355 ;;      Temps:          0       0       0       0       0       0       0       0       0       0       0       0       
      +0       0       0       0
  4356 ;;      Totals:         1       0       0       0       0       0       0       0       0       0       0       0       
      +0       0       0       0
  4357 ;;Total ram usage:        1 bytes
  4358 ;; Hardware stack levels used:    1
  4359 ;; Hardware stack levels required when called:    4
  4360 ;; This function calls:
  4361 ;;		_EEPROMWrite
  4362 ;;		_ReadSensTable
  4363 ;;		_SetSens
  4364 ;; This function is called by:
  4365 ;;		_TransportDataProcess
  4366 ;; This function uses a non-reentrant model
  4367 ;;
  4368                           
  4369                           	psect	text19
  4370  000EF2                     __ptext19:
  4371                           	opt stack 0
  4372  000EF2                     _DTWriteSens:
  4373                           	opt stack 24
  4374                           
  4375                           ;DTWriteSens@dat stored from wreg
  4376  000EF2  CFE8 F02F          	movff	wreg,DTWriteSens@dat
  4377                           
  4378                           ; BSR set to: 0
  4379                           ;CoilDet-V0.0.C: 1214: eeprom_addr = 0x0009;
  4380  000EF6  6A5A               	clrf	_eeprom_addr+1,c
  4381  000EF8  0E09               	movlw	9
  4382  000EFA  6E59               	movwf	_eeprom_addr,c
  4383                           
  4384                           ;CoilDet-V0.0.C: 1215: eeprom_num = 16;
  4385  000EFC  0E10               	movlw	16
  4386  000EFE  6E5B               	movwf	_eeprom_num,c
  4387                           
  4388                           ; BSR set to: 0
  4389                           ;CoilDet-V0.0.C: 1216: EEPROMWrite(&eeprom_addr,&eeprom_num,dat);
  4390  000F00  0E5B               	movlw	low _eeprom_num
  4391  000F02  6E28               	movwf	?_EEPROMWrite,c
  4392  000F04  C02F  F029         	movff	DTWriteSens@dat,?_EEPROMWrite+1
  4393  000F08  0E59               	movlw	_eeprom_addr& (0+255)
  4394  000F0A  EC58  F005         	call	_EEPROMWrite
  4395                           
  4396                           ;CoilDet-V0.0.C: 1217: ReadSensTable(det_current_sens_table);
  4397  000F0E  0100               	movlb	0	; () banked
  4398  000F10  0EDC               	movlw	_det_current_sens_table& (0+255)
  4399  000F12  ECC8  F007         	call	_ReadSensTable
  4400                           
  4401                           ;CoilDet-V0.0.C: 1218: SetSens(det_current_sens_table,det_current_sens_lv);
  4402  000F16  0E22               	movlw	low _det_current_sens_lv
  4403  000F18  6E28               	movwf	?_SetSens,c
  4404  000F1A  0100               	movlb	0	; () banked
  4405  000F1C  0EDC               	movlw	_det_current_sens_table& (0+255)
  4406  000F1E  EF3D  F006         	goto	_SetSens
  4407  000F22                     __end_of_DTWriteSens:
  4408                           	opt stack 0
  4409                           tblptru	equ	0xFF8
  4410                           tblptrh	equ	0xFF7
  4411                           tblptrl	equ	0xFF6
  4412                           tablat	equ	0xFF5
  4413                           prodl	equ	0xFF3
  4414                           intcon	equ	0xFF2
  4415                           postinc0	equ	0xFEE
  4416                           wreg	equ	0xFE8
  4417                           indf1	equ	0xFE7
  4418                           postinc1	equ	0xFE6
  4419                           postdec1	equ	0xFE5
  4420                           fsr1h	equ	0xFE2
  4421                           fsr1l	equ	0xFE1
  4422                           indf2	equ	0xFDF
  4423                           postinc2	equ	0xFDE
  4424                           postdec2	equ	0xFDD
  4425                           fsr2h	equ	0xFDA
  4426                           fsr2l	equ	0xFD9
  4427                           status	equ	0xFD8
  4428                           
  4429 ;; *************** function _SetSens *****************
  4430 ;; Defined at:
  4431 ;;		line 575 in file "E:\working\coil\coil-v0.0-14\CoilDet\CoilDet-V0.0.C"
  4432 ;; Parameters:    Size  Location     Type
  4433 ;;  table           1    wreg     PTR unsigned char 
  4434 ;;		 -> det_current_sens_table(16), 
  4435 ;;  level           1    0[COMRAM] PTR unsigned char 
  4436 ;;		 -> det_current_sens_lv(4), 
  4437 ;; Auto vars:     Size  Location     Type
  4438 ;;  table           1    2[COMRAM] PTR unsigned char 
  4439 ;;		 -> det_current_sens_table(16), 
  4440 ;; Return value:  Size  Location     Type
  4441 ;;		None               void
  4442 ;; Registers used:
  4443 ;;		wreg, fsr2l, fsr2h, status,2, status,0
  4444 ;; Tracked objects:
  4445 ;;		On entry : F/0
  4446 ;;		On exit  : F/0
  4447 ;;		Unchanged: FFFFFFF0/0
  4448 ;; Data sizes:     COMRAM   BANK0   BANK1   BANK2   BANK3   BANK4   BANK5   BANK6   BANK7   BANK8   BANK9  BANK10  BANK1
      +1  BANK12  BANK13  BANK14
  4449 ;;      Params:         1       0       0       0       0       0       0       0       0       0       0       0       
      +0       0       0       0
  4450 ;;      Locals:         1       0       0       0       0       0       0       0       0       0       0       0       
      +0       0       0       0
  4451 ;;      Temps:          1       0       0       0       0       0       0       0       0       0       0       0       
      +0       0       0       0
  4452 ;;      Totals:         3       0       0       0       0       0       0       0       0       0       0       0       
      +0       0       0       0
  4453 ;;Total ram usage:        3 bytes
  4454 ;; Hardware stack levels used:    1
  4455 ;; Hardware stack levels required when called:    2
  4456 ;; This function calls:
  4457 ;;		Nothing
  4458 ;; This function is called by:
  4459 ;;		_DTWriteSensLv
  4460 ;;		_DTWriteSens
  4461 ;; This function uses a non-reentrant model
  4462 ;;
  4463                           
  4464                           	psect	text20
  4465  000C7A                     __ptext20:
  4466                           	opt stack 0
  4467  000C7A                     _SetSens:
  4468                           	opt stack 25
  4469                           
  4470                           ; BSR set to: 0
  4471                           ;SetSens@table stored from wreg
  4472  000C7A  CFE8 F02A          	movff	wreg,SetSens@table
  4473                           
  4474                           ; BSR set to: 0
  4475                           ;CoilDet-V0.0.C: 576: det_current_sens[0]=*(table+(*level&0x0f));
  4476  000C7E  5028               	movf	SetSens@level,w,c
  4477  000C80  D825               	call	PL6	;call to abstracted procedure
  4478  000C82  6E4E               	movwf	_det_current_sens,c
  4479                           
  4480                           ;CoilDet-V0.0.C: 577: det_current_sens[1]=*(table+((*level&0xf0)>>4));
  4481  000C84  D814               	call	PL5	;call to abstracted procedure
  4482  000C86  6E4F               	movwf	_det_current_sens+1,c
  4483                           
  4484                           ; BSR set to: 0
  4485                           ;CoilDet-V0.0.C: 578: level++;
  4486  000C88  2A28               	incf	SetSens@level,f,c
  4487                           
  4488                           ; BSR set to: 0
  4489                           ;CoilDet-V0.0.C: 579: det_current_sens[2] =*(table+(*level&0x0f));
  4490  000C8A  5028               	movf	SetSens@level,w,c
  4491  000C8C  D81F               	call	PL6	;call to abstracted procedure
  4492  000C8E  6E50               	movwf	_det_current_sens+2,c
  4493                           
  4494                           ; BSR set to: 0
  4495                           ;CoilDet-V0.0.C: 580: det_current_sens[3] =*(table+((*level&0xf0)>>4));
  4496  000C90  D80E               	call	PL5	;call to abstracted procedure
  4497  000C92  6E51               	movwf	_det_current_sens+3,c
  4498                           
  4499                           ; BSR set to: 0
  4500                           ;CoilDet-V0.0.C: 581: level++;
  4501  000C94  2A28               	incf	SetSens@level,f,c
  4502                           
  4503                           ;CoilDet-V0.0.C: 582: det_current_sens[4] =*(table+(*level&0x0f));
  4504  000C96  5028               	movf	SetSens@level,w,c
  4505  000C98  D819               	call	PL6	;call to abstracted procedure
  4506  000C9A  6E52               	movwf	_det_current_sens+4,c
  4507                           
  4508                           ;CoilDet-V0.0.C: 583: det_current_sens[5] =*(table+((*level&0xf0)>>4));
  4509  000C9C  D808               	call	PL5	;call to abstracted procedure
  4510  000C9E  6E53               	movwf	_det_current_sens+5,c
  4511                           
  4512                           ; BSR set to: 0
  4513                           ;CoilDet-V0.0.C: 584: level++;
  4514  000CA0  2A28               	incf	SetSens@level,f,c
  4515                           
  4516                           ; BSR set to: 0
  4517                           ;CoilDet-V0.0.C: 585: det_current_sens[6] =*(table+(*level&0x0f));
  4518  000CA2  5028               	movf	SetSens@level,w,c
  4519  000CA4  D813               	call	PL6	;call to abstracted procedure
  4520  000CA6  6E54               	movwf	_det_current_sens+6,c
  4521                           
  4522                           ; BSR set to: 0
  4523                           ;CoilDet-V0.0.C: 586: det_current_sens[7] =*(table+((*level&0xf0)>>4));
  4524  000CA8  D802               	call	PL5	;call to abstracted procedure
  4525  000CAA  6E55               	movwf	_det_current_sens+7,c
  4526                           
  4527                           ; BSR set to: 0
  4528  000CAC  0012               	return	
  4529  000CAE                     __end_of_SetSens:
  4530                           	opt stack 0
  4531  000CAE                     PL5:
  4532  000CAE  5028               	movf	SetSens@level,w,c
  4533  000CB0  6ED9               	movwf	fsr2l,c
  4534  000CB2  6ADA               	clrf	fsr2h,c
  4535  000CB4  50DF               	movf	indf2,w,c
  4536  000CB6  6E29               	movwf	??_SetSens& (0+255),c
  4537  000CB8  3A29               	swapf	??_SetSens,f,c
  4538  000CBA  0E0F               	movlw	15
  4539  000CBC  1629               	andwf	??_SetSens,f,c
  4540  000CBE  1629               	andwf	??_SetSens,f,c
  4541  000CC0  502A               	movf	SetSens@table,w,c
  4542  000CC2  2429               	addwf	??_SetSens,w,c
  4543  000CC4  6ED9               	movwf	fsr2l,c
  4544  000CC6  6ADA               	clrf	fsr2h,c
  4545  000CC8  50DF               	movf	indf2,w,c
  4546  000CCA  0012               	return	
  4547  000CCC                     PL6:
  4548  000CCC  6ED9               	movwf	fsr2l,c
  4549  000CCE  6ADA               	clrf	fsr2h,c
  4550  000CD0  50DF               	movf	indf2,w,c
  4551  000CD2  6E29               	movwf	??_SetSens& (0+255),c
  4552  000CD4  0E0F               	movlw	15
  4553  000CD6  1629               	andwf	??_SetSens,f,c
  4554  000CD8  502A               	movf	SetSens@table,w,c
  4555  000CDA  2429               	addwf	??_SetSens,w,c
  4556  000CDC  6ED9               	movwf	fsr2l,c
  4557  000CDE  6ADA               	clrf	fsr2h,c
  4558  000CE0  50DF               	movf	indf2,w,c
  4559  000CE2  0012               	return	
  4560                           tblptru	equ	0xFF8
  4561                           tblptrh	equ	0xFF7
  4562                           tblptrl	equ	0xFF6
  4563                           tablat	equ	0xFF5
  4564                           prodl	equ	0xFF3
  4565                           intcon	equ	0xFF2
  4566                           postinc0	equ	0xFEE
  4567                           wreg	equ	0xFE8
  4568                           indf1	equ	0xFE7
  4569                           postinc1	equ	0xFE6
  4570                           postdec1	equ	0xFE5
  4571                           fsr1h	equ	0xFE2
  4572                           fsr1l	equ	0xFE1
  4573                           indf2	equ	0xFDF
  4574                           postinc2	equ	0xFDE
  4575                           postdec2	equ	0xFDD
  4576                           fsr2h	equ	0xFDA
  4577                           fsr2l	equ	0xFD9
  4578                           status	equ	0xFD8
  4579                           
  4580 ;; *************** function _ReadSensTable *****************
  4581 ;; Defined at:
  4582 ;;		line 1186 in file "E:\working\coil\coil-v0.0-14\CoilDet\CoilDet-V0.0.C"
  4583 ;; Parameters:    Size  Location     Type
  4584 ;;  dat             1    wreg     PTR unsigned char 
  4585 ;;		 -> det_current_sens_table(16), DT_data1(18), 
  4586 ;; Auto vars:     Size  Location     Type
  4587 ;;  dat             1    6[COMRAM] PTR unsigned char 
  4588 ;;		 -> det_current_sens_table(16), DT_data1(18), 
  4589 ;; Return value:  Size  Location     Type
  4590 ;;		None               void
  4591 ;; Registers used:
  4592 ;;		wreg, fsr2l, fsr2h, status,2, status,0, cstack
  4593 ;; Tracked objects:
  4594 ;;		On entry : F/0
  4595 ;;		On exit  : 0/0
  4596 ;;		Unchanged: 0/0
  4597 ;; Data sizes:     COMRAM   BANK0   BANK1   BANK2   BANK3   BANK4   BANK5   BANK6   BANK7   BANK8   BANK9  BANK10  BANK1
      +1  BANK12  BANK13  BANK14
  4598 ;;      Params:         0       0       0       0       0       0       0       0       0       0       0       0       
      +0       0       0       0
  4599 ;;      Locals:         1       0       0       0       0       0       0       0       0       0       0       0       
      +0       0       0       0
  4600 ;;      Temps:          0       0       0       0       0       0       0       0       0       0       0       0       
      +0       0       0       0
  4601 ;;      Totals:         1       0       0       0       0       0       0       0       0       0       0       0       
      +0       0       0       0
  4602 ;;Total ram usage:        1 bytes
  4603 ;; Hardware stack levels used:    1
  4604 ;; Hardware stack levels required when called:    3
  4605 ;; This function calls:
  4606 ;;		_EEPROMRead
  4607 ;; This function is called by:
  4608 ;;		_DTWriteSens
  4609 ;;		_TransportDataProcess
  4610 ;; This function uses a non-reentrant model
  4611 ;;
  4612                           
  4613                           	psect	text21
  4614  000F90                     __ptext21:
  4615                           	opt stack 0
  4616  000F90                     _ReadSensTable:
  4617                           	opt stack 24
  4618                           
  4619                           ; BSR set to: 0
  4620                           ;ReadSensTable@dat stored from wreg
  4621  000F90  CFE8 F02E          	movff	wreg,ReadSensTable@dat
  4622                           
  4623                           ; BSR set to: 0
  4624                           ;CoilDet-V0.0.C: 1188: eeprom_addr = 0x0009;
  4625  000F94  6A5A               	clrf	_eeprom_addr+1,c
  4626  000F96  0E09               	movlw	9
  4627  000F98  6E59               	movwf	_eeprom_addr,c
  4628                           
  4629                           ;CoilDet-V0.0.C: 1189: eeprom_num = 16;
  4630  000F9A  0E10               	movlw	16
  4631  000F9C  6E5B               	movwf	_eeprom_num,c
  4632                           
  4633                           ; BSR set to: 0
  4634                           ;CoilDet-V0.0.C: 1190: EEPROMRead(&eeprom_addr,&eeprom_num,dat);
  4635  000F9E  0E5B               	movlw	low _eeprom_num
  4636  000FA0  6E28               	movwf	?_EEPROMRead,c
  4637  000FA2  C02E  F029         	movff	ReadSensTable@dat,?_EEPROMRead+1
  4638  000FA6  6A2A               	clrf	?_EEPROMRead+2,c
  4639  000FA8  0E59               	movlw	_eeprom_addr& (0+255)
  4640  000FAA  EF72  F006         	goto	_EEPROMRead
  4641  000FAE                     __end_of_ReadSensTable:
  4642                           	opt stack 0
  4643                           tblptru	equ	0xFF8
  4644                           tblptrh	equ	0xFF7
  4645                           tblptrl	equ	0xFF6
  4646                           tablat	equ	0xFF5
  4647                           prodl	equ	0xFF3
  4648                           intcon	equ	0xFF2
  4649                           postinc0	equ	0xFEE
  4650                           wreg	equ	0xFE8
  4651                           indf1	equ	0xFE7
  4652                           postinc1	equ	0xFE6
  4653                           postdec1	equ	0xFE5
  4654                           fsr1h	equ	0xFE2
  4655                           fsr1l	equ	0xFE1
  4656                           indf2	equ	0xFDF
  4657                           postinc2	equ	0xFDE
  4658                           postdec2	equ	0xFDD
  4659                           fsr2h	equ	0xFDA
  4660                           fsr2l	equ	0xFD9
  4661                           status	equ	0xFD8
  4662                           
  4663 ;; *************** function _EEPROMRead *****************
  4664 ;; Defined at:
  4665 ;;		line 45 in file "E:\working\coil\coil-v0.0-14\CoilDet\mcu.h"
  4666 ;; Parameters:    Size  Location     Type
  4667 ;;  addr            1    wreg     PTR unsigned int 
  4668 ;;		 -> eeprom_addr(2), 
  4669 ;;  num             1    0[COMRAM] PTR unsigned char 
  4670 ;;		 -> eeprom_num(1), 
  4671 ;;  dat             2    1[COMRAM] PTR unsigned char 
  4672 ;;		 -> det_current_sens_table(16), det_current_sens_lv(4), DT_data1(18), SetConfig@EEPromData(22), 
  4673 ;; Auto vars:     Size  Location     Type
  4674 ;;  addr            1    5[COMRAM] PTR unsigned int 
  4675 ;;		 -> eeprom_addr(2), 
  4676 ;; Return value:  Size  Location     Type
  4677 ;;		None               void
  4678 ;; Registers used:
  4679 ;;		wreg, fsr2l, fsr2h, status,2, status,0
  4680 ;; Tracked objects:
  4681 ;;		On entry : 0/F
  4682 ;;		On exit  : 0/0
  4683 ;;		Unchanged: 0/0
  4684 ;; Data sizes:     COMRAM   BANK0   BANK1   BANK2   BANK3   BANK4   BANK5   BANK6   BANK7   BANK8   BANK9  BANK10  BANK1
      +1  BANK12  BANK13  BANK14
  4685 ;;      Params:         3       0       0       0       0       0       0       0       0       0       0       0       
      +0       0       0       0
  4686 ;;      Locals:         1       0       0       0       0       0       0       0       0       0       0       0       
      +0       0       0       0
  4687 ;;      Temps:          2       0       0       0       0       0       0       0       0       0       0       0       
      +0       0       0       0
  4688 ;;      Totals:         6       0       0       0       0       0       0       0       0       0       0       0       
      +0       0       0       0
  4689 ;;Total ram usage:        6 bytes
  4690 ;; Hardware stack levels used:    1
  4691 ;; Hardware stack levels required when called:    2
  4692 ;; This function calls:
  4693 ;;		Nothing
  4694 ;; This function is called by:
  4695 ;;		_SetConfig
  4696 ;;		_ReadFrequency
  4697 ;;		_ReadSensLv
  4698 ;;		_ReadSensTable
  4699 ;; This function uses a non-reentrant model
  4700 ;;
  4701                           
  4702                           	psect	text22
  4703  000CE4                     __ptext22:
  4704                           	opt stack 0
  4705  000CE4                     _EEPROMRead:
  4706                           	opt stack 24
  4707                           
  4708                           ;EEPROMRead@addr stored from wreg
  4709  000CE4  CFE8 F02D          	movff	wreg,EEPROMRead@addr
  4710  000CE8                     l425:
  4711                           
  4712                           ;mcu.h: 47: {
  4713                           ;mcu.h: 48: EEADRH = (*addr)>>8;
  4714  000CE8  502D               	movf	EEPROMRead@addr,w,c
  4715  000CEA  6ED9               	movwf	fsr2l,c
  4716  000CEC  6ADA               	clrf	fsr2h,c
  4717  000CEE  CFDE F02B          	movff	postinc2,??_EEPROMRead
  4718  000CF2  CFDD F02C          	movff	postdec2,??_EEPROMRead+1
  4719  000CF6  C02C  F02B         	movff	??_EEPROMRead+1,??_EEPROMRead
  4720  000CFA  6A2C               	clrf	??_EEPROMRead+1,c
  4721  000CFC  502B               	movf	??_EEPROMRead,w,c
  4722  000CFE  6E75               	movwf	3957,c	;volatile
  4723                           
  4724                           ;mcu.h: 49: EEADR = (*addr);
  4725  000D00  502D               	movf	EEPROMRead@addr,w,c
  4726  000D02  6ED9               	movwf	fsr2l,c
  4727  000D04  6ADA               	clrf	fsr2h,c
  4728  000D06  50DF               	movf	indf2,w,c
  4729  000D08  6E74               	movwf	3956,c	;volatile
  4730                           
  4731                           ;mcu.h: 50: (*addr)++;
  4732  000D0A  502D               	movf	EEPROMRead@addr,w,c
  4733  000D0C  6ED9               	movwf	fsr2l,c
  4734  000D0E  6ADA               	clrf	fsr2h,c
  4735  000D10  2ADE               	incf	postinc2,f,c
  4736  000D12  0E00               	movlw	0
  4737  000D14  22DD               	addwfc	postdec2,f,c
  4738                           
  4739                           ;mcu.h: 52: EEDATA = 0;
  4740  000D16  6A73               	clrf	3955,c	;volatile
  4741                           
  4742                           ;mcu.h: 54: EECON1 &= 0x3f;
  4743  000D18  0E3F               	movlw	63
  4744  000D1A  167F               	andwf	3967,f,c	;volatile
  4745                           
  4746                           ;mcu.h: 57: EECON1 |= 0x01;
  4747  000D1C  807F               	bsf	3967,0,c	;volatile
  4748  000D1E  F000               	nop		;# 
  4749                           
  4750                           ;mcu.h: 60: (*dat) = EEDATA;
  4751  000D20  C029  FFD9         	movff	EEPROMRead@dat,fsr2l
  4752  000D24  C02A  FFDA         	movff	EEPROMRead@dat+1,fsr2h
  4753  000D28  CF73 FFDF          	movff	3955,indf2	;volatile
  4754                           
  4755                           ;mcu.h: 61: dat++;
  4756  000D2C  4A29               	infsnz	EEPROMRead@dat,f,c
  4757  000D2E  2A2A               	incf	EEPROMRead@dat+1,f,c
  4758                           
  4759                           ;mcu.h: 62: }
  4760                           ;mcu.h: 63: while((*num)--);
  4761  000D30  5028               	movf	EEPROMRead@num,w,c
  4762  000D32  6ED9               	movwf	fsr2l,c
  4763  000D34  6ADA               	clrf	fsr2h,c
  4764  000D36  06DF               	decf	indf2,f,c
  4765  000D38  0EFF               	movlw	255
  4766  000D3A  62DF               	cpfseq	indf2,c
  4767  000D3C  D7D5               	goto	l425
  4768  000D3E  0CFF               	retlw	255
  4769  000D40                     __end_of_EEPROMRead:
  4770                           	opt stack 0
  4771                           tblptru	equ	0xFF8
  4772                           tblptrh	equ	0xFF7
  4773                           tblptrl	equ	0xFF6
  4774                           tablat	equ	0xFF5
  4775                           prodl	equ	0xFF3
  4776                           intcon	equ	0xFF2
  4777                           postinc0	equ	0xFEE
  4778                           wreg	equ	0xFE8
  4779                           indf1	equ	0xFE7
  4780                           postinc1	equ	0xFE6
  4781                           postdec1	equ	0xFE5
  4782                           fsr1h	equ	0xFE2
  4783                           fsr1l	equ	0xFE1
  4784                           indf2	equ	0xFDF
  4785                           postinc2	equ	0xFDE
  4786                           postdec2	equ	0xFDD
  4787                           fsr2h	equ	0xFDA
  4788                           fsr2l	equ	0xFD9
  4789                           status	equ	0xFD8
  4790                           
  4791 ;; *************** function _DTWriteOSCSet *****************
  4792 ;; Defined at:
  4793 ;;		line 1224 in file "E:\working\coil\coil-v0.0-14\CoilDet\CoilDet-V0.0.C"
  4794 ;; Parameters:    Size  Location     Type
  4795 ;;  dat             1    wreg     PTR unsigned char 
  4796 ;;		 -> DT_data(18), 
  4797 ;; Auto vars:     Size  Location     Type
  4798 ;;  dat             1    8[COMRAM] PTR unsigned char 
  4799 ;;		 -> DT_data(18), 
  4800 ;; Return value:  Size  Location     Type
  4801 ;;		None               void
  4802 ;; Registers used:
  4803 ;;		wreg, fsr2l, fsr2h, status,2, status,0, cstack
  4804 ;; Tracked objects:
  4805 ;;		On entry : F/0
  4806 ;;		On exit  : 0/0
  4807 ;;		Unchanged: 0/0
  4808 ;; Data sizes:     COMRAM   BANK0   BANK1   BANK2   BANK3   BANK4   BANK5   BANK6   BANK7   BANK8   BANK9  BANK10  BANK1
      +1  BANK12  BANK13  BANK14
  4809 ;;      Params:         0       0       0       0       0       0       0       0       0       0       0       0       
      +0       0       0       0
  4810 ;;      Locals:         1       0       0       0       0       0       0       0       0       0       0       0       
      +0       0       0       0
  4811 ;;      Temps:          0       0       0       0       0       0       0       0       0       0       0       0       
      +0       0       0       0
  4812 ;;      Totals:         1       0       0       0       0       0       0       0       0       0       0       0       
      +0       0       0       0
  4813 ;;Total ram usage:        1 bytes
  4814 ;; Hardware stack levels used:    1
  4815 ;; Hardware stack levels required when called:    4
  4816 ;; This function calls:
  4817 ;;		_EEPROMWrite
  4818 ;;		_SetFreq
  4819 ;; This function is called by:
  4820 ;;		_TransportDataProcess
  4821 ;; This function uses a non-reentrant model
  4822 ;;
  4823                           
  4824                           	psect	text23
  4825  000E3C                     __ptext23:
  4826                           	opt stack 0
  4827  000E3C                     _DTWriteOSCSet:
  4828                           	opt stack 24
  4829                           
  4830                           ;DTWriteOSCSet@dat stored from wreg
  4831  000E3C  CFE8 F030          	movff	wreg,DTWriteOSCSet@dat
  4832                           
  4833                           ; BSR set to: 0
  4834                           ;CoilDet-V0.0.C: 1226: eeprom_addr = 0x0019;
  4835  000E40  6A5A               	clrf	_eeprom_addr+1,c
  4836  000E42  0E19               	movlw	25
  4837  000E44  6E59               	movwf	_eeprom_addr,c
  4838                           
  4839                           ;CoilDet-V0.0.C: 1227: eeprom_num = 2;
  4840  000E46  0E02               	movlw	2
  4841  000E48  6E5B               	movwf	_eeprom_num,c
  4842                           
  4843                           ; BSR set to: 0
  4844                           ;CoilDet-V0.0.C: 1228: EEPROMWrite(&eeprom_addr,&eeprom_num,dat);
  4845  000E4A  0E5B               	movlw	low _eeprom_num
  4846  000E4C  6E28               	movwf	?_EEPROMWrite,c
  4847  000E4E  C030  F029         	movff	DTWriteOSCSet@dat,?_EEPROMWrite+1
  4848  000E52  0E59               	movlw	_eeprom_addr& (0+255)
  4849  000E54  EC58  F005         	call	_EEPROMWrite
  4850                           
  4851                           ;CoilDet-V0.0.C: 1229: det_osc_cfg[0]=*dat;
  4852  000E58  5030               	movf	DTWriteOSCSet@dat,w,c
  4853  000E5A  6ED9               	movwf	fsr2l,c
  4854  000E5C  6ADA               	clrf	fsr2h,c
  4855  000E5E  50DF               	movf	indf2,w,c
  4856  000E60  6E26               	movwf	_det_osc_cfg,c
  4857                           
  4858                           ;CoilDet-V0.0.C: 1230: dat++;
  4859  000E62  2A30               	incf	DTWriteOSCSet@dat,f,c
  4860                           
  4861                           ;CoilDet-V0.0.C: 1231: det_osc_cfg[1]=*dat;
  4862  000E64  5030               	movf	DTWriteOSCSet@dat,w,c
  4863  000E66  6ED9               	movwf	fsr2l,c
  4864  000E68  6ADA               	clrf	fsr2h,c
  4865  000E6A  50DF               	movf	indf2,w,c
  4866  000E6C  6E27               	movwf	_det_osc_cfg+1,c
  4867                           
  4868                           ;CoilDet-V0.0.C: 1232: SetFreq(det_osc_cfg);
  4869  000E6E  0E26               	movlw	_det_osc_cfg& (0+255)
  4870  000E70  EC91  F007         	call	_SetFreq
  4871                           
  4872                           ;CoilDet-V0.0.C: 1233: DT_data1[0]=det_osc_cfg[0];
  4873  000E74  C026  F0CA         	movff	_det_osc_cfg,_DT_data1
  4874                           
  4875                           ;CoilDet-V0.0.C: 1234: DT_data1[1]=det_osc_cfg[1];
  4876  000E78  C027  F0CB         	movff	_det_osc_cfg+1,_DT_data1+1
  4877  000E7C  0012               	return	
  4878  000E7E                     __end_of_DTWriteOSCSet:
  4879                           	opt stack 0
  4880                           tblptru	equ	0xFF8
  4881                           tblptrh	equ	0xFF7
  4882                           tblptrl	equ	0xFF6
  4883                           tablat	equ	0xFF5
  4884                           prodl	equ	0xFF3
  4885                           intcon	equ	0xFF2
  4886                           postinc0	equ	0xFEE
  4887                           wreg	equ	0xFE8
  4888                           indf1	equ	0xFE7
  4889                           postinc1	equ	0xFE6
  4890                           postdec1	equ	0xFE5
  4891                           fsr1h	equ	0xFE2
  4892                           fsr1l	equ	0xFE1
  4893                           indf2	equ	0xFDF
  4894                           postinc2	equ	0xFDE
  4895                           postdec2	equ	0xFDD
  4896                           fsr2h	equ	0xFDA
  4897                           fsr2l	equ	0xFD9
  4898                           status	equ	0xFD8
  4899                           
  4900 ;; *************** function _EEPROMWrite *****************
  4901 ;; Defined at:
  4902 ;;		line 70 in file "E:\working\coil\coil-v0.0-14\CoilDet\mcu.h"
  4903 ;; Parameters:    Size  Location     Type
  4904 ;;  addr            1    wreg     PTR unsigned int 
  4905 ;;		 -> eeprom_addr(2), 
  4906 ;;  num             1    0[COMRAM] PTR unsigned char 
  4907 ;;		 -> eeprom_num(1), 
  4908 ;;  dat             1    1[COMRAM] PTR unsigned char 
  4909 ;;		 -> DT_data(18), 
  4910 ;; Auto vars:     Size  Location     Type
  4911 ;;  addr            1    4[COMRAM] PTR unsigned int 
  4912 ;;		 -> eeprom_addr(2), 
  4913 ;; Return value:  Size  Location     Type
  4914 ;;		None               void
  4915 ;; Registers used:
  4916 ;;		wreg, fsr2l, fsr2h, status,2, status,0
  4917 ;; Tracked objects:
  4918 ;;		On entry : F/0
  4919 ;;		On exit  : 0/0
  4920 ;;		Unchanged: 0/0
  4921 ;; Data sizes:     COMRAM   BANK0   BANK1   BANK2   BANK3   BANK4   BANK5   BANK6   BANK7   BANK8   BANK9  BANK10  BANK1
      +1  BANK12  BANK13  BANK14
  4922 ;;      Params:         2       0       0       0       0       0       0       0       0       0       0       0       
      +0       0       0       0
  4923 ;;      Locals:         1       0       0       0       0       0       0       0       0       0       0       0       
      +0       0       0       0
  4924 ;;      Temps:          2       0       0       0       0       0       0       0       0       0       0       0       
      +0       0       0       0
  4925 ;;      Totals:         5       0       0       0       0       0       0       0       0       0       0       0       
      +0       0       0       0
  4926 ;;Total ram usage:        5 bytes
  4927 ;; Hardware stack levels used:    1
  4928 ;; Hardware stack levels required when called:    2
  4929 ;; This function calls:
  4930 ;;		Nothing
  4931 ;; This function is called by:
  4932 ;;		_DTWriteSensLv
  4933 ;;		_DTWriteSens
  4934 ;;		_DTWriteOSCSet
  4935 ;; This function uses a non-reentrant model
  4936 ;;
  4937                           
  4938                           	psect	text24
  4939  000AB0                     __ptext24:
  4940                           	opt stack 0
  4941  000AB0                     _EEPROMWrite:
  4942                           	opt stack 25
  4943                           
  4944                           ;EEPROMWrite@addr stored from wreg
  4945  000AB0  CFE8 F02C          	movff	wreg,EEPROMWrite@addr
  4946                           
  4947                           ; BSR set to: 0
  4948                           ;mcu.h: 71: INTCON &= 0x3f;
  4949  000AB4  0E3F               	movlw	63
  4950  000AB6  16F2               	andwf	intcon,f,c	;volatile
  4951                           
  4952                           ;mcu.h: 72: while((*num)--)
  4953  000AB8  D02B               	goto	l2315
  4954  000ABA                     l2293:
  4955                           
  4956                           ;mcu.h: 73: {
  4957                           ;mcu.h: 74: EEADRH = (*addr)>>8;
  4958  000ABA  502C               	movf	EEPROMWrite@addr,w,c
  4959  000ABC  6ED9               	movwf	fsr2l,c
  4960  000ABE  6ADA               	clrf	fsr2h,c
  4961  000AC0  CFDE F02A          	movff	postinc2,??_EEPROMWrite
  4962  000AC4  CFDD F02B          	movff	postdec2,??_EEPROMWrite+1
  4963  000AC8  C02B  F02A         	movff	??_EEPROMWrite+1,??_EEPROMWrite
  4964  000ACC  6A2B               	clrf	??_EEPROMWrite+1,c
  4965  000ACE  502A               	movf	??_EEPROMWrite,w,c
  4966  000AD0  6E75               	movwf	3957,c	;volatile
  4967                           
  4968                           ;mcu.h: 75: EEADR = (*addr);
  4969  000AD2  502C               	movf	EEPROMWrite@addr,w,c
  4970  000AD4  6ED9               	movwf	fsr2l,c
  4971  000AD6  6ADA               	clrf	fsr2h,c
  4972  000AD8  50DF               	movf	indf2,w,c
  4973  000ADA  6E74               	movwf	3956,c	;volatile
  4974                           
  4975                           ;mcu.h: 76: (*addr)++;
  4976  000ADC  502C               	movf	EEPROMWrite@addr,w,c
  4977  000ADE  6ED9               	movwf	fsr2l,c
  4978  000AE0  6ADA               	clrf	fsr2h,c
  4979  000AE2  2ADE               	incf	postinc2,f,c
  4980  000AE4  0E00               	movlw	0
  4981  000AE6  22DD               	addwfc	postdec2,f,c
  4982                           
  4983                           ;mcu.h: 77: EEDATA = (*dat);
  4984  000AE8  5029               	movf	EEPROMWrite@dat,w,c
  4985  000AEA  6ED9               	movwf	fsr2l,c
  4986  000AEC  6ADA               	clrf	fsr2h,c
  4987  000AEE  50DF               	movf	indf2,w,c
  4988  000AF0  6E73               	movwf	3955,c	;volatile
  4989                           
  4990                           ;mcu.h: 78: dat++;
  4991  000AF2  2A29               	incf	EEPROMWrite@dat,f,c
  4992                           
  4993                           ;mcu.h: 80: EECON1 &= 0x3f;
  4994  000AF4  0E3F               	movlw	63
  4995  000AF6  167F               	andwf	3967,f,c	;volatile
  4996                           
  4997                           ;mcu.h: 82: EECON1 |= 0x04;
  4998  000AF8  847F               	bsf	3967,2,c	;volatile
  4999                           
  5000                           ;mcu.h: 87: EECON2 = 0x55;
  5001  000AFA  0E55               	movlw	85
  5002  000AFC  6E7E               	movwf	3966,c	;volatile
  5003                           
  5004                           ;mcu.h: 88: EECON2 = 0xaa;
  5005  000AFE  0EAA               	movlw	170
  5006  000B00  6E7E               	movwf	3966,c	;volatile
  5007                           
  5008                           ;mcu.h: 90: EECON1 |= 0x02;
  5009  000B02  827F               	bsf	3967,1,c	;volatile
  5010  000B04  F000               	nop		;# 
  5011  000B06                     l432:
  5012  000B06  B27F               	btfsc	3967,1,c	;volatile
  5013  000B08  D7FE               	goto	l432
  5014  000B0A  F000               	nop		;# 
  5015                           
  5016                           ;mcu.h: 95: EECON1 &= 0x04;
  5017  000B0C  0E04               	movlw	4
  5018  000B0E  167F               	andwf	3967,f,c	;volatile
  5019  000B10                     l2315:
  5020  000B10  5028               	movf	EEPROMWrite@num,w,c
  5021  000B12  6ED9               	movwf	fsr2l,c
  5022  000B14  6ADA               	clrf	fsr2h,c
  5023  000B16  06DF               	decf	indf2,f,c
  5024  000B18  0EFF               	movlw	255
  5025  000B1A  62DF               	cpfseq	indf2,c
  5026  000B1C  D7CE               	goto	l2293
  5027                           
  5028                           ;mcu.h: 97: }
  5029                           ;mcu.h: 99: INTCON |= 0xc0;
  5030  000B1E  0EC0               	movlw	192
  5031  000B20  12F2               	iorwf	intcon,f,c	;volatile
  5032  000B22  0CC0               	retlw	192
  5033  000B24                     __end_of_EEPROMWrite:
  5034                           	opt stack 0
  5035                           tblptru	equ	0xFF8
  5036                           tblptrh	equ	0xFF7
  5037                           tblptrl	equ	0xFF6
  5038                           tablat	equ	0xFF5
  5039                           prodl	equ	0xFF3
  5040                           intcon	equ	0xFF2
  5041                           postinc0	equ	0xFEE
  5042                           wreg	equ	0xFE8
  5043                           indf1	equ	0xFE7
  5044                           postinc1	equ	0xFE6
  5045                           postdec1	equ	0xFE5
  5046                           fsr1h	equ	0xFE2
  5047                           fsr1l	equ	0xFE1
  5048                           indf2	equ	0xFDF
  5049                           postinc2	equ	0xFDE
  5050                           postdec2	equ	0xFDD
  5051                           fsr2h	equ	0xFDA
  5052                           fsr2l	equ	0xFD9
  5053                           status	equ	0xFD8
  5054                           
  5055 ;; *************** function _SetFreq *****************
  5056 ;; Defined at:
  5057 ;;		line 563 in file "E:\working\coil\coil-v0.0-14\CoilDet\CoilDet-V0.0.C"
  5058 ;; Parameters:    Size  Location     Type
  5059 ;;  dat             1    wreg     PTR unsigned char 
  5060 ;;		 -> det_osc_cfg(2), 
  5061 ;; Auto vars:     Size  Location     Type
  5062 ;;  dat             1    7[COMRAM] PTR unsigned char 
  5063 ;;		 -> det_osc_cfg(2), 
  5064 ;;  temp_data       2    5[COMRAM] unsigned char [2]
  5065 ;; Return value:  Size  Location     Type
  5066 ;;		None               void
  5067 ;; Registers used:
  5068 ;;		wreg, fsr2l, fsr2h, status,2, status,0, cstack
  5069 ;; Tracked objects:
  5070 ;;		On entry : 0/F
  5071 ;;		On exit  : 0/F
  5072 ;;		Unchanged: FFFFFFFF/0
  5073 ;; Data sizes:     COMRAM   BANK0   BANK1   BANK2   BANK3   BANK4   BANK5   BANK6   BANK7   BANK8   BANK9  BANK10  BANK1
      +1  BANK12  BANK13  BANK14
  5074 ;;      Params:         0       0       0       0       0       0       0       0       0       0       0       0       
      +0       0       0       0
  5075 ;;      Locals:         3       0       0       0       0       0       0       0       0       0       0       0       
      +0       0       0       0
  5076 ;;      Temps:          0       0       0       0       0       0       0       0       0       0       0       0       
      +0       0       0       0
  5077 ;;      Totals:         3       0       0       0       0       0       0       0       0       0       0       0       
      +0       0       0       0
  5078 ;;Total ram usage:        3 bytes
  5079 ;; Hardware stack levels used:    1
  5080 ;; Hardware stack levels required when called:    3
  5081 ;; This function calls:
  5082 ;;		_Set595Output
  5083 ;; This function is called by:
  5084 ;;		_SetConfig
  5085 ;;		_DTWriteOSCSet
  5086 ;; This function uses a non-reentrant model
  5087 ;;
  5088                           
  5089                           	psect	text25
  5090  000F22                     __ptext25:
  5091                           	opt stack 0
  5092  000F22                     _SetFreq:
  5093                           	opt stack 24
  5094                           
  5095                           ;SetFreq@dat stored from wreg
  5096  000F22  CFE8 F02F          	movff	wreg,SetFreq@dat
  5097                           
  5098                           ;CoilDet-V0.0.C: 564: unsigned char temp_data[2] = {0,0};
  5099  000F26  6A2D               	clrf	SetFreq@temp_data,c
  5100  000F28  6A2E               	clrf	SetFreq@temp_data+1,c
  5101                           
  5102                           ;CoilDet-V0.0.C: 566: temp_data[1] = dat[0];
  5103  000F2A  502F               	movf	SetFreq@dat,w,c
  5104  000F2C  6ED9               	movwf	fsr2l,c
  5105  000F2E  6ADA               	clrf	fsr2h,c
  5106  000F30  50DF               	movf	indf2,w,c
  5107  000F32  6E2E               	movwf	SetFreq@temp_data+1,c
  5108                           
  5109                           ;CoilDet-V0.0.C: 567: temp_data[0] = dat[1];
  5110  000F34  502F               	movf	SetFreq@dat,w,c
  5111  000F36  6ED9               	movwf	fsr2l,c
  5112  000F38  6ADA               	clrf	fsr2h,c
  5113  000F3A  2AD9               	incf	fsr2l,f,c
  5114  000F3C  6ADA               	clrf	fsr2h,c
  5115  000F3E  50DF               	movf	indf2,w,c
  5116  000F40  6E2D               	movwf	SetFreq@temp_data,c
  5117                           
  5118                           ;CoilDet-V0.0.C: 568: Set595Output(temp_data,2);
  5119  000F42  0E02               	movlw	2
  5120  000F44  6E28               	movwf	?_Set595Output,c
  5121  000F46  0E2D               	movlw	SetFreq@temp_data& (0+255)
  5122  000F48  EFCD  F006         	goto	_Set595Output
  5123  000F4C                     __end_of_SetFreq:
  5124                           	opt stack 0
  5125                           tblptru	equ	0xFF8
  5126                           tblptrh	equ	0xFF7
  5127                           tblptrl	equ	0xFF6
  5128                           tablat	equ	0xFF5
  5129                           prodl	equ	0xFF3
  5130                           intcon	equ	0xFF2
  5131                           postinc0	equ	0xFEE
  5132                           wreg	equ	0xFE8
  5133                           indf1	equ	0xFE7
  5134                           postinc1	equ	0xFE6
  5135                           postdec1	equ	0xFE5
  5136                           fsr1h	equ	0xFE2
  5137                           fsr1l	equ	0xFE1
  5138                           indf2	equ	0xFDF
  5139                           postinc2	equ	0xFDE
  5140                           postdec2	equ	0xFDD
  5141                           fsr2h	equ	0xFDA
  5142                           fsr2l	equ	0xFD9
  5143                           status	equ	0xFD8
  5144                           
  5145 ;; *************** function _Set595Output *****************
  5146 ;; Defined at:
  5147 ;;		line 507 in file "E:\working\coil\coil-v0.0-14\CoilDet\CoilDet-V0.0.C"
  5148 ;; Parameters:    Size  Location     Type
  5149 ;;  dat             1    wreg     PTR unsigned char 
  5150 ;;		 -> SetFreq@temp_data(2), 
  5151 ;;  num             1    0[COMRAM] unsigned char 
  5152 ;; Auto vars:     Size  Location     Type
  5153 ;;  dat             1    2[COMRAM] PTR unsigned char 
  5154 ;;		 -> SetFreq@temp_data(2), 
  5155 ;;  i               1    4[COMRAM] unsigned char 
  5156 ;;  tempd           1    3[COMRAM] unsigned char 
  5157 ;;  j               1    1[COMRAM] unsigned char 
  5158 ;;  mov             1    0        unsigned char 
  5159 ;; Return value:  Size  Location     Type
  5160 ;;		None               void
  5161 ;; Registers used:
  5162 ;;		wreg, fsr2l, fsr2h, status,2, status,0
  5163 ;; Tracked objects:
  5164 ;;		On entry : 0/F
  5165 ;;		On exit  : 0/F
  5166 ;;		Unchanged: FFFFFFFF/0
  5167 ;; Data sizes:     COMRAM   BANK0   BANK1   BANK2   BANK3   BANK4   BANK5   BANK6   BANK7   BANK8   BANK9  BANK10  BANK1
      +1  BANK12  BANK13  BANK14
  5168 ;;      Params:         1       0       0       0       0       0       0       0       0       0       0       0       
      +0       0       0       0
  5169 ;;      Locals:         4       0       0       0       0       0       0       0       0       0       0       0       
      +0       0       0       0
  5170 ;;      Temps:          0       0       0       0       0       0       0       0       0       0       0       0       
      +0       0       0       0
  5171 ;;      Totals:         5       0       0       0       0       0       0       0       0       0       0       0       
      +0       0       0       0
  5172 ;;Total ram usage:        5 bytes
  5173 ;; Hardware stack levels used:    1
  5174 ;; Hardware stack levels required when called:    2
  5175 ;; This function calls:
  5176 ;;		Nothing
  5177 ;; This function is called by:
  5178 ;;		_SetFreq
  5179 ;; This function uses a non-reentrant model
  5180 ;;
  5181                           
  5182                           	psect	text26
  5183  000D9A                     __ptext26:
  5184                           	opt stack 0
  5185  000D9A                     _Set595Output:
  5186                           	opt stack 24
  5187                           
  5188                           ;Set595Output@dat stored from wreg
  5189  000D9A  CFE8 F02A          	movff	wreg,Set595Output@dat
  5190                           
  5191                           ;CoilDet-V0.0.C: 510: unsigned char mov=0x00;
  5192  000D9E  6A2B               	clrf	Set595Output@tempd,c
  5193                           
  5194                           ;CoilDet-V0.0.C: 512: RB3 = 0;
  5195  000DA0  9681               	bcf	3969,3,c	;volatile
  5196                           
  5197                           ;CoilDet-V0.0.C: 515: PORTB |= 0X02;
  5198  000DA2  8281               	bsf	3969,1,c	;volatile
  5199                           
  5200                           ;CoilDet-V0.0.C: 518: RB2=TRUE;
  5201  000DA4  8481               	bsf	3969,2,c	;volatile
  5202                           
  5203                           ;CoilDet-V0.0.C: 520: tempd =dat[0];
  5204  000DA6  502A               	movf	Set595Output@dat,w,c
  5205  000DA8  6ED9               	movwf	fsr2l,c
  5206  000DAA  6ADA               	clrf	fsr2h,c
  5207  000DAC  50DF               	movf	indf2,w,c
  5208  000DAE  6E2B               	movwf	Set595Output@tempd,c
  5209                           
  5210                           ;CoilDet-V0.0.C: 522: for(j=0;j<num;j++)
  5211  000DB0  6A29               	clrf	Set595Output@j,c
  5212  000DB2  D017               	goto	l2481
  5213  000DB4                     l580:
  5214                           
  5215                           ;CoilDet-V0.0.C: 523: {
  5216                           ;CoilDet-V0.0.C: 524: for(i=0;i<8;i++)
  5217  000DB4  6A2C               	clrf	Set595Output@i,c
  5218  000DB6                     l581:
  5219                           
  5220                           ;CoilDet-V0.0.C: 525: {
  5221                           ;CoilDet-V0.0.C: 528: if(tempd & 0x80)
  5222  000DB6  AE2B               	btfss	Set595Output@tempd,7,c
  5223  000DB8  D002               	goto	l583
  5224                           
  5225                           ;CoilDet-V0.0.C: 529: {
  5226                           ;CoilDet-V0.0.C: 530: RB4 = 1;
  5227  000DBA  8881               	bsf	3969,4,c	;volatile
  5228                           
  5229                           ;CoilDet-V0.0.C: 531: }
  5230  000DBC  D001               	goto	l2469
  5231  000DBE                     l583:
  5232                           
  5233                           ;CoilDet-V0.0.C: 532: else
  5234                           ;CoilDet-V0.0.C: 533: {
  5235                           ;CoilDet-V0.0.C: 534: RB4 = 0;
  5236  000DBE  9881               	bcf	3969,4,c	;volatile
  5237  000DC0                     l2469:
  5238                           
  5239                           ;CoilDet-V0.0.C: 535: }
  5240                           ;CoilDet-V0.0.C: 537: PORTB &= 0XFE;
  5241  000DC0  9081               	bcf	3969,0,c	;volatile
  5242                           
  5243                           ;CoilDet-V0.0.C: 539: PORTB |= 0X01;
  5244  000DC2  8081               	bsf	3969,0,c	;volatile
  5245                           
  5246                           ;CoilDet-V0.0.C: 541: PORTB &= 0XFE;
  5247  000DC4  9081               	bcf	3969,0,c	;volatile
  5248                           
  5249                           ;CoilDet-V0.0.C: 542: tempd <<=1;
  5250  000DC6  90D8               	bcf	status,0,c
  5251  000DC8  362B               	rlcf	Set595Output@tempd,f,c
  5252  000DCA  2A2C               	incf	Set595Output@i,f,c
  5253  000DCC  0E07               	movlw	7
  5254  000DCE  642C               	cpfsgt	Set595Output@i,c
  5255  000DD0  D7F2               	goto	l581
  5256                           
  5257                           ;CoilDet-V0.0.C: 543: }
  5258                           ;CoilDet-V0.0.C: 545: tempd = dat[1];
  5259  000DD2  502A               	movf	Set595Output@dat,w,c
  5260  000DD4  6ED9               	movwf	fsr2l,c
  5261  000DD6  6ADA               	clrf	fsr2h,c
  5262  000DD8  2AD9               	incf	fsr2l,f,c
  5263  000DDA  6ADA               	clrf	fsr2h,c
  5264  000DDC  50DF               	movf	indf2,w,c
  5265  000DDE  6E2B               	movwf	Set595Output@tempd,c
  5266  000DE0  2A29               	incf	Set595Output@j,f,c
  5267  000DE2                     l2481:
  5268  000DE2  5028               	movf	Set595Output@num,w,c
  5269  000DE4  5C29               	subwf	Set595Output@j,w,c
  5270  000DE6  E3E6               	bnc	l580
  5271                           
  5272                           ;CoilDet-V0.0.C: 548: }
  5273                           ;CoilDet-V0.0.C: 550: PORTB &= 0XFD;
  5274  000DE8  9281               	bcf	3969,1,c	;volatile
  5275                           
  5276                           ;CoilDet-V0.0.C: 552: PORTB |= 0X02;
  5277  000DEA  8281               	bsf	3969,1,c	;volatile
  5278                           
  5279                           ;CoilDet-V0.0.C: 554: PORTB &= 0XFD;
  5280  000DEC  9281               	bcf	3969,1,c	;volatile
  5281  000DEE  0012               	return	
  5282  000DF0                     __end_of_Set595Output:
  5283                           	opt stack 0
  5284                           tblptru	equ	0xFF8
  5285                           tblptrh	equ	0xFF7
  5286                           tblptrl	equ	0xFF6
  5287                           tablat	equ	0xFF5
  5288                           prodl	equ	0xFF3
  5289                           intcon	equ	0xFF2
  5290                           postinc0	equ	0xFEE
  5291                           wreg	equ	0xFE8
  5292                           indf1	equ	0xFE7
  5293                           postinc1	equ	0xFE6
  5294                           postdec1	equ	0xFE5
  5295                           fsr1h	equ	0xFE2
  5296                           fsr1l	equ	0xFE1
  5297                           indf2	equ	0xFDF
  5298                           postinc2	equ	0xFDE
  5299                           postdec2	equ	0xFDD
  5300                           fsr2h	equ	0xFDA
  5301                           fsr2l	equ	0xFD9
  5302                           status	equ	0xFD8
  5303                           
  5304 ;; *************** function _GetCoilState *****************
  5305 ;; Defined at:
  5306 ;;		line 1242 in file "E:\working\coil\coil-v0.0-14\CoilDet\CoilDet-V0.0.C"
  5307 ;; Parameters:    Size  Location     Type
  5308 ;;		None
  5309 ;; Auto vars:     Size  Location     Type
  5310 ;;		None
  5311 ;; Return value:  Size  Location     Type
  5312 ;;		None               void
  5313 ;; Registers used:
  5314 ;;		wreg, fsr2l, fsr2h, status,2, status,0, prodl, prodh, cstack
  5315 ;; Tracked objects:
  5316 ;;		On entry : 0/0
  5317 ;;		On exit  : 0/0
  5318 ;;		Unchanged: FFFFFFF0/0
  5319 ;; Data sizes:     COMRAM   BANK0   BANK1   BANK2   BANK3   BANK4   BANK5   BANK6   BANK7   BANK8   BANK9  BANK10  BANK1
      +1  BANK12  BANK13  BANK14
  5320 ;;      Params:         0       0       0       0       0       0       0       0       0       0       0       0       
      +0       0       0       0
  5321 ;;      Locals:         0       0       0       0       0       0       0       0       0       0       0       0       
      +0       0       0       0
  5322 ;;      Temps:          0       0       0       0       0       0       0       0       0       0       0       0       
      +0       0       0       0
  5323 ;;      Totals:         0       0       0       0       0       0       0       0       0       0       0       0       
      +0       0       0       0
  5324 ;;Total ram usage:        0 bytes
  5325 ;; Hardware stack levels used:    1
  5326 ;; Hardware stack levels required when called:    5
  5327 ;; This function calls:
  5328 ;;		_GetSampPluse
  5329 ;; This function is called by:
  5330 ;;		_TransportDataProcess
  5331 ;; This function uses a non-reentrant model
  5332 ;;
  5333                           
  5334                           	psect	text27
  5335  001004                     __ptext27:
  5336                           	opt stack 0
  5337  001004                     _GetCoilState:
  5338                           	opt stack 23
  5339                           
  5340                           ;CoilDet-V0.0.C: 1249: GetSampPluse();
  5341  001004  EC24  F004         	call	_GetSampPluse	;wreg free
  5342                           
  5343                           ;CoilDet-V0.0.C: 1250: DT_data1[2]=det_status[0];
  5344  001008  C016  F0CC         	movff	_det_status,_DT_data1+2
  5345                           
  5346                           ;CoilDet-V0.0.C: 1251: DT_data1[3]=det_status[1];
  5347  00100C  C017  F0CD         	movff	_det_status+1,_DT_data1+3
  5348                           
  5349                           ;CoilDet-V0.0.C: 1252: DT_data1[4]=det_status[2];
  5350  001010  C018  F0CE         	movff	_det_status+2,_DT_data1+4
  5351                           
  5352                           ;CoilDet-V0.0.C: 1253: DT_data1[5]=det_status[3];
  5353  001014  C019  F0CF         	movff	_det_status+3,_DT_data1+5
  5354  001018  0012               	return	
  5355  00101A                     __end_of_GetCoilState:
  5356                           	opt stack 0
  5357                           tblptru	equ	0xFF8
  5358                           tblptrh	equ	0xFF7
  5359                           tblptrl	equ	0xFF6
  5360                           tablat	equ	0xFF5
  5361                           prodl	equ	0xFF3
  5362                           intcon	equ	0xFF2
  5363                           postinc0	equ	0xFEE
  5364                           wreg	equ	0xFE8
  5365                           indf1	equ	0xFE7
  5366                           postinc1	equ	0xFE6
  5367                           postdec1	equ	0xFE5
  5368                           fsr1h	equ	0xFE2
  5369                           fsr1l	equ	0xFE1
  5370                           indf2	equ	0xFDF
  5371                           postinc2	equ	0xFDE
  5372                           postdec2	equ	0xFDD
  5373                           fsr2h	equ	0xFDA
  5374                           fsr2l	equ	0xFD9
  5375                           status	equ	0xFD8
  5376                           
  5377 ;; *************** function _GetSampPluse *****************
  5378 ;; Defined at:
  5379 ;;		line 739 in file "E:\working\coil\coil-v0.0-14\CoilDet\CoilDet-V0.0.C"
  5380 ;; Parameters:    Size  Location     Type
  5381 ;;		None
  5382 ;; Auto vars:     Size  Location     Type
  5383 ;;  i               1   11[COMRAM] unsigned char 
  5384 ;; Return value:  Size  Location     Type
  5385 ;;		None               void
  5386 ;; Registers used:
  5387 ;;		wreg, fsr2l, fsr2h, status,2, status,0, prodl, prodh, cstack
  5388 ;; Tracked objects:
  5389 ;;		On entry : 0/F
  5390 ;;		On exit  : 0/0
  5391 ;;		Unchanged: FFFFFFF0/0
  5392 ;; Data sizes:     COMRAM   BANK0   BANK1   BANK2   BANK3   BANK4   BANK5   BANK6   BANK7   BANK8   BANK9  BANK10  BANK1
      +1  BANK12  BANK13  BANK14
  5393 ;;      Params:         0       0       0       0       0       0       0       0       0       0       0       0       
      +0       0       0       0
  5394 ;;      Locals:         1       0       0       0       0       0       0       0       0       0       0       0       
      +0       0       0       0
  5395 ;;      Temps:          3       0       0       0       0       0       0       0       0       0       0       0       
      +0       0       0       0
  5396 ;;      Totals:         4       0       0       0       0       0       0       0       0       0       0       0       
      +0       0       0       0
  5397 ;;Total ram usage:        4 bytes
  5398 ;; Hardware stack levels used:    1
  5399 ;; Hardware stack levels required when called:    4
  5400 ;; This function calls:
  5401 ;;		_delayus
  5402 ;;		_GetChSampPluse
  5403 ;; This function is called by:
  5404 ;;		_GetCoilState
  5405 ;;		_main
  5406 ;; This function uses a non-reentrant model
  5407 ;;
  5408                           
  5409                           	psect	text28
  5410  000848                     __ptext28:
  5411                           	opt stack 0
  5412  000848                     _GetSampPluse:
  5413                           	opt stack 23
  5414                           
  5415                           ;CoilDet-V0.0.C: 740: unsigned char i = 0x00;
  5416  000848  6A33               	clrf	GetSampPluse@i,c
  5417                           
  5418                           ;CoilDet-V0.0.C: 752: for(i=0;i<8;i++)
  5419  00084A  6A33               	clrf	GetSampPluse@i,c
  5420  00084C                     l2611:
  5421  00084C  0E07               	movlw	7
  5422  00084E  6433               	cpfsgt	GetSampPluse@i,c
  5423  000850  D001               	goto	l2615
  5424  000852  0C07               	retlw	7
  5425  000854                     l2615:
  5426                           
  5427                           ;CoilDet-V0.0.C: 753: {
  5428                           ;CoilDet-V0.0.C: 754: if(det_result_output&(0x01<<i))
  5429  000854  D847               	call	PL15	;call to abstracted procedure
  5430  000856  D002               	goto	u1684
  5431  000858                     u1685:
  5432  000858  90D8               	bcf	status,0,c
  5433  00085A  3631               	rlcf	??_GetSampPluse+1,f,c
  5434  00085C                     u1684:
  5435  00085C  2E30               	decfsz	??_GetSampPluse,f,c
  5436  00085E  D7FC               	goto	u1685
  5437  000860  5031               	movf	??_GetSampPluse+1,w,c
  5438  000862  1420               	andwf	_det_result_output,w,c
  5439  000864  E023               	bz	l624
  5440                           
  5441                           ;CoilDet-V0.0.C: 755: {
  5442                           ;CoilDet-V0.0.C: 756: det_enable |= (0x01 <<i);
  5443  000866  D83E               	call	PL15	;call to abstracted procedure
  5444  000868  D002               	goto	u1704
  5445  00086A                     u1705:
  5446  00086A  90D8               	bcf	status,0,c
  5447  00086C  3631               	rlcf	??_GetSampPluse+1,f,c
  5448  00086E                     u1704:
  5449  00086E  2E30               	decfsz	??_GetSampPluse,f,c
  5450  000870  D7FC               	goto	u1705
  5451  000872  5031               	movf	??_GetSampPluse+1,w,c
  5452  000874  1258               	iorwf	_det_enable,f,c
  5453                           
  5454                           ;CoilDet-V0.0.C: 757: if(i%2 == 0x00)
  5455  000876  B033               	btfsc	GetSampPluse@i,0,c
  5456  000878  D007               	goto	l2623
  5457                           
  5458                           ;CoilDet-V0.0.C: 758: {
  5459                           ;CoilDet-V0.0.C: 759: det_status[i/2] |= (((det_status[i/2] & 0xf0) | 0x08)|0x00);
  5460  00087A  C033  F030         	movff	GetSampPluse@i,??_GetSampPluse
  5461  00087E  D829               	call	PL13	;call to abstracted procedure
  5462  000880  0EF0               	movlw	240
  5463  000882  1631               	andwf	??_GetSampPluse+1,f,c
  5464  000884  0E08               	movlw	8
  5465  000886  D006               	goto	L6
  5466  000888                     l2623:
  5467                           
  5468                           ;CoilDet-V0.0.C: 761: else
  5469                           ;CoilDet-V0.0.C: 762: {
  5470                           ;CoilDet-V0.0.C: 763: det_status[i/2] |= (((det_status[i/2] & 0x0f) | 0x80)|(0x00<<4));
  5471  000888  C033  F030         	movff	GetSampPluse@i,??_GetSampPluse
  5472  00088C  D822               	call	PL13	;call to abstracted procedure
  5473  00088E  0E0F               	movlw	15
  5474  000890  1631               	andwf	??_GetSampPluse+1,f,c
  5475  000892  0E80               	movlw	128
  5476  000894                     L6:
  5477  000894  1231               	iorwf	??_GetSampPluse+1,f,c
  5478  000896  C033  F032         	movff	GetSampPluse@i,??_GetSampPluse+2
  5479  00089A  90D8               	bcf	status,0,c
  5480  00089C  3232               	rrcf	??_GetSampPluse+2,f,c
  5481  00089E  5032               	movf	??_GetSampPluse+2,w,c
  5482  0008A0  0F16               	addlw	low _det_status
  5483  0008A2  6ED9               	movwf	fsr2l,c
  5484  0008A4  6ADA               	clrf	fsr2h,c
  5485  0008A6  5031               	movf	??_GetSampPluse+1,w,c
  5486  0008A8  12DF               	iorwf	indf2,f,c
  5487  0008AA  D011               	goto	l2631
  5488  0008AC                     l624:
  5489                           
  5490                           ;CoilDet-V0.0.C: 766: else
  5491                           ;CoilDet-V0.0.C: 767: {
  5492                           ;CoilDet-V0.0.C: 768: PORTD = 0xFF;
  5493  0008AC  6883               	setf	3971,c	;volatile
  5494                           
  5495                           ;CoilDet-V0.0.C: 769: PORTD = (~(0x01 << i));
  5496  0008AE  D81A               	call	PL15	;call to abstracted procedure
  5497  0008B0  D002               	goto	u1724
  5498  0008B2                     u1725:
  5499  0008B2  90D8               	bcf	status,0,c
  5500  0008B4  3631               	rlcf	??_GetSampPluse+1,f,c
  5501  0008B6                     u1724:
  5502  0008B6  2E30               	decfsz	??_GetSampPluse,f,c
  5503  0008B8  D7FC               	goto	u1725
  5504  0008BA  1C31               	comf	??_GetSampPluse+1,w,c
  5505  0008BC  6E83               	movwf	3971,c	;volatile
  5506                           
  5507                           ;CoilDet-V0.0.C: 771: delayus(100);
  5508  0008BE  6A29               	clrf	?_delayus+1,c
  5509  0008C0  0E64               	movlw	100
  5510  0008C2  6E28               	movwf	?_delayus,c
  5511  0008C4  ECB8  F007         	call	_delayus	;wreg free
  5512                           
  5513                           ;CoilDet-V0.0.C: 772: GetChSampPluse(i);
  5514  0008C8  5033               	movf	GetSampPluse@i,w,c
  5515  0008CA  EC19  F005         	call	_GetChSampPluse
  5516  0008CE                     l2631:
  5517  0008CE  2A33               	incf	GetSampPluse@i,f,c
  5518  0008D0  D7BD               	goto	l2611
  5519  0008D2                     __end_of_GetSampPluse:
  5520                           	opt stack 0
  5521  0008D2                     PL13:
  5522  0008D2  90D8               	bcf	status,0,c
  5523  0008D4  3230               	rrcf	??_GetSampPluse,f,c
  5524  0008D6  5030               	movf	??_GetSampPluse,w,c
  5525  0008D8  0F16               	addlw	low _det_status
  5526  0008DA  6ED9               	movwf	fsr2l,c
  5527  0008DC  6ADA               	clrf	fsr2h,c
  5528  0008DE  50DF               	movf	indf2,w,c
  5529  0008E0  6E31               	movwf	(??_GetSampPluse+1)& (0+255),c
  5530  0008E2  0012               	return	
  5531  0008E4                     PL15:
  5532  0008E4  C033  F030         	movff	GetSampPluse@i,??_GetSampPluse
  5533  0008E8  0E01               	movlw	1
  5534  0008EA  6E31               	movwf	(??_GetSampPluse+1)& (0+255),c
  5535  0008EC  2A30               	incf	??_GetSampPluse,f,c
  5536  0008EE  0C01               	retlw	1
  5537                           tblptru	equ	0xFF8
  5538                           tblptrh	equ	0xFF7
  5539                           tblptrl	equ	0xFF6
  5540                           tablat	equ	0xFF5
  5541                           prodl	equ	0xFF3
  5542                           intcon	equ	0xFF2
  5543                           postinc0	equ	0xFEE
  5544                           wreg	equ	0xFE8
  5545                           indf1	equ	0xFE7
  5546                           postinc1	equ	0xFE6
  5547                           postdec1	equ	0xFE5
  5548                           fsr1h	equ	0xFE2
  5549                           fsr1l	equ	0xFE1
  5550                           indf2	equ	0xFDF
  5551                           postinc2	equ	0xFDE
  5552                           postdec2	equ	0xFDD
  5553                           fsr2h	equ	0xFDA
  5554                           fsr2l	equ	0xFD9
  5555                           status	equ	0xFD8
  5556                           
  5557 ;; *************** function _delayus *****************
  5558 ;; Defined at:
  5559 ;;		line 104 in file "E:\working\coil\coil-v0.0-14\CoilDet\mcu.h"
  5560 ;; Parameters:    Size  Location     Type
  5561 ;;  us              2    0[COMRAM] unsigned int 
  5562 ;; Auto vars:     Size  Location     Type
  5563 ;;  i               2    2[COMRAM] unsigned int 
  5564 ;; Return value:  Size  Location     Type
  5565 ;;		None               void
  5566 ;; Registers used:
  5567 ;;		wreg, status,2, status,0
  5568 ;; Tracked objects:
  5569 ;;		On entry : 0/F
  5570 ;;		On exit  : 0/F
  5571 ;;		Unchanged: FFFFFFFF/0
  5572 ;; Data sizes:     COMRAM   BANK0   BANK1   BANK2   BANK3   BANK4   BANK5   BANK6   BANK7   BANK8   BANK9  BANK10  BANK1
      +1  BANK12  BANK13  BANK14
  5573 ;;      Params:         2       0       0       0       0       0       0       0       0       0       0       0       
      +0       0       0       0
  5574 ;;      Locals:         2       0       0       0       0       0       0       0       0       0       0       0       
      +0       0       0       0
  5575 ;;      Temps:          0       0       0       0       0       0       0       0       0       0       0       0       
      +0       0       0       0
  5576 ;;      Totals:         4       0       0       0       0       0       0       0       0       0       0       0       
      +0       0       0       0
  5577 ;;Total ram usage:        4 bytes
  5578 ;; Hardware stack levels used:    1
  5579 ;; Hardware stack levels required when called:    2
  5580 ;; This function calls:
  5581 ;;		Nothing
  5582 ;; This function is called by:
  5583 ;;		_delayms
  5584 ;;		_GetSampPluse
  5585 ;;		_DetInit
  5586 ;;		_StartDet
  5587 ;; This function uses a non-reentrant model
  5588 ;;
  5589                           
  5590                           	psect	text29
  5591  000F70                     __ptext29:
  5592                           	opt stack 0
  5593  000F70                     _delayus:
  5594                           	opt stack 25
  5595                           
  5596                           ;mcu.h: 106: unsigned int i;
  5597                           ;mcu.h: 107: us=us-5;
  5598  000F70  0EFB               	movlw	251
  5599  000F72  2628               	addwf	delayus@us,f,c
  5600  000F74  0EFF               	movlw	255
  5601  000F76  2229               	addwfc	delayus@us+1,f,c
  5602                           
  5603                           ;mcu.h: 109: for(i=0;i<us;i++)
  5604  000F78  6A2A               	clrf	delayus@i,c
  5605  000F7A  6A2B               	clrf	delayus@i+1,c
  5606  000F7C  D002               	goto	l2325
  5607  000F7E                     l2323:
  5608                           
  5609                           ;mcu.h: 110: {
  5610                           ;mcu.h: 111: ;
  5611  000F7E  4A2A               	infsnz	delayus@i,f,c
  5612  000F80  2A2B               	incf	delayus@i+1,f,c
  5613  000F82                     l2325:
  5614  000F82  5028               	movf	delayus@us,w,c
  5615  000F84  5C2A               	subwf	delayus@i,w,c
  5616  000F86  5029               	movf	delayus@us+1,w,c
  5617  000F88  582B               	subwfb	delayus@i+1,w,c
  5618  000F8A  B0D8               	btfsc	status,0,c
  5619  000F8C  0012               	return	
  5620  000F8E  D7F7               	goto	l2323
  5621  000F90                     __end_of_delayus:
  5622                           	opt stack 0
  5623                           tblptru	equ	0xFF8
  5624                           tblptrh	equ	0xFF7
  5625                           tblptrl	equ	0xFF6
  5626                           tablat	equ	0xFF5
  5627                           prodl	equ	0xFF3
  5628                           intcon	equ	0xFF2
  5629                           postinc0	equ	0xFEE
  5630                           wreg	equ	0xFE8
  5631                           indf1	equ	0xFE7
  5632                           postinc1	equ	0xFE6
  5633                           postdec1	equ	0xFE5
  5634                           fsr1h	equ	0xFE2
  5635                           fsr1l	equ	0xFE1
  5636                           indf2	equ	0xFDF
  5637                           postinc2	equ	0xFDE
  5638                           postdec2	equ	0xFDD
  5639                           fsr2h	equ	0xFDA
  5640                           fsr2l	equ	0xFD9
  5641                           status	equ	0xFD8
  5642                           
  5643 ;; *************** function _GetChSampPluse *****************
  5644 ;; Defined at:
  5645 ;;		line 678 in file "E:\working\coil\coil-v0.0-14\CoilDet\CoilDet-V0.0.C"
  5646 ;; Parameters:    Size  Location     Type
  5647 ;;  ch              1    wreg     unsigned char 
  5648 ;; Auto vars:     Size  Location     Type
  5649 ;;  ch              1    7[COMRAM] unsigned char 
  5650 ;;  temp_sta        1    0        unsigned char 
  5651 ;; Return value:  Size  Location     Type
  5652 ;;		None               void
  5653 ;; Registers used:
  5654 ;;		wreg, fsr2l, fsr2h, status,2, status,0, prodl, prodh, cstack
  5655 ;; Tracked objects:
  5656 ;;		On entry : 0/F
  5657 ;;		On exit  : F/0
  5658 ;;		Unchanged: FFFFFFF0/0
  5659 ;; Data sizes:     COMRAM   BANK0   BANK1   BANK2   BANK3   BANK4   BANK5   BANK6   BANK7   BANK8   BANK9  BANK10  BANK1
      +1  BANK12  BANK13  BANK14
  5660 ;;      Params:         0       0       0       0       0       0       0       0       0       0       0       0       
      +0       0       0       0
  5661 ;;      Locals:         2       0       0       0       0       0       0       0       0       0       0       0       
      +0       0       0       0
  5662 ;;      Temps:          2       0       0       0       0       0       0       0       0       0       0       0       
      +0       0       0       0
  5663 ;;      Totals:         4       0       0       0       0       0       0       0       0       0       0       0       
      +0       0       0       0
  5664 ;;Total ram usage:        4 bytes
  5665 ;; Hardware stack levels used:    1
  5666 ;; Hardware stack levels required when called:    3
  5667 ;; This function calls:
  5668 ;;		_PulseErrSet
  5669 ;; This function is called by:
  5670 ;;		_GetSampPluse
  5671 ;; This function uses a non-reentrant model
  5672 ;;
  5673                           
  5674                           	psect	text30
  5675  000A32                     __ptext30:
  5676                           	opt stack 0
  5677  000A32                     _GetChSampPluse:
  5678                           	opt stack 23
  5679                           
  5680                           ;GetChSampPluse@ch stored from wreg
  5681  000A32  CFE8 F02F          	movff	wreg,GetChSampPluse@ch
  5682                           
  5683                           ;CoilDet-V0.0.C: 685: TMR0ON = 0;
  5684  000A36  9ED5               	bcf	4053,7,c	;volatile
  5685                           
  5686                           ;CoilDet-V0.0.C: 687: TMR0H = 0xd8;
  5687  000A38  0ED8               	movlw	216
  5688  000A3A  6ED7               	movwf	4055,c	;volatile
  5689                           
  5690                           ;CoilDet-V0.0.C: 688: TMR0L = 0xef;
  5691  000A3C  0EEF               	movlw	239
  5692  000A3E  6ED6               	movwf	4054,c	;volatile
  5693                           
  5694                           ;CoilDet-V0.0.C: 691: TMR3ON = 0;
  5695  000A40  90B1               	bcf	4017,0,c	;volatile
  5696                           
  5697                           ;CoilDet-V0.0.C: 693: TMR3H = 0X00;
  5698  000A42  6AB3               	clrf	4019,c	;volatile
  5699                           
  5700                           ;CoilDet-V0.0.C: 694: TMR3L = 0X00;
  5701  000A44  6AB2               	clrf	4018,c	;volatile
  5702                           
  5703                           ;CoilDet-V0.0.C: 696: TMR3IE = 0;
  5704  000A46  92A0               	bcf	4000,1,c	;volatile
  5705                           
  5706                           ;CoilDet-V0.0.C: 698: SSPIE = 0;
  5707  000A48  969D               	bcf	3997,3,c	;volatile
  5708                           
  5709                           ;CoilDet-V0.0.C: 700: time0_int = 0 ;
  5710  000A4A  945C               	bcf	_time0_int/(0+8),_time0_int& (0+7),c
  5711                           
  5712                           ;CoilDet-V0.0.C: 703: TMR3ON = 1;
  5713  000A4C  80B1               	bsf	4017,0,c	;volatile
  5714                           
  5715                           ;CoilDet-V0.0.C: 705: TMR0ON = 1;
  5716  000A4E  8ED5               	bsf	4053,7,c	;volatile
  5717                           
  5718                           ;CoilDet-V0.0.C: 707: INTCON |= 0xc0;
  5719  000A50  0EC0               	movlw	192
  5720  000A52  12F2               	iorwf	intcon,f,c	;volatile
  5721  000A54                     l615:
  5722  000A54  A45C               	btfss	_time0_int/(0+8),_time0_int& (0+7),c
  5723  000A56  D7FE               	goto	l615
  5724                           
  5725                           ;CoilDet-V0.0.C: 717: }
  5726                           ;CoilDet-V0.0.C: 719: TMR3ON = 0;
  5727  000A58  90B1               	bcf	4017,0,c	;volatile
  5728                           
  5729                           ;CoilDet-V0.0.C: 721: TMR0ON = 0;
  5730  000A5A  9ED5               	bcf	4053,7,c	;volatile
  5731                           
  5732                           ;CoilDet-V0.0.C: 722: det_pluse_counter[ch] = 0x0000;
  5733  000A5C  502F               	movf	GetChSampPluse@ch,w,c
  5734  000A5E  0D02               	mullw	2
  5735  000A60  50F3               	movf	prodl,w,c
  5736  000A62  0100               	movlb	0	; () banked
  5737  000A64  0F70               	addlw	low _det_pluse_counter
  5738  000A66  6ED9               	movwf	fsr2l,c
  5739  000A68  6ADA               	clrf	fsr2h,c
  5740  000A6A  6ADE               	clrf	postinc2,c
  5741  000A6C  6ADD               	clrf	postdec2,c
  5742                           
  5743                           ;CoilDet-V0.0.C: 723: det_pluse_counter[ch] = (TMR3H <<8)|TMR3L;
  5744  000A6E  50B2               	movf	4018,w,c	;volatile
  5745  000A70  CFB3 F02C          	movff	4019,??_GetChSampPluse	;volatile
  5746  000A74  6A2D               	clrf	(??_GetChSampPluse+1)& (0+255),c
  5747  000A76  C02C  F02D         	movff	??_GetChSampPluse,??_GetChSampPluse+1
  5748  000A7A  6A2C               	clrf	??_GetChSampPluse,c
  5749  000A7C  122C               	iorwf	??_GetChSampPluse,f,c
  5750  000A7E  502F               	movf	GetChSampPluse@ch,w,c
  5751  000A80  0D02               	mullw	2
  5752  000A82  50F3               	movf	prodl,w,c
  5753  000A84  0F70               	addlw	low _det_pluse_counter
  5754  000A86  6ED9               	movwf	fsr2l,c
  5755  000A88  6ADA               	clrf	fsr2h,c
  5756  000A8A  C02C  FFDE         	movff	??_GetChSampPluse,postinc2
  5757  000A8E  C02D  FFDD         	movff	??_GetChSampPluse+1,postdec2
  5758                           
  5759                           ; BSR set to: 0
  5760                           ;CoilDet-V0.0.C: 724: det_pluse_counter_h[ch] = 0xff - TMR3H;
  5761  000A92  502F               	movf	GetChSampPluse@ch,w,c
  5762  000A94  0FA8               	addlw	low _det_pluse_counter_h
  5763  000A96  6ED9               	movwf	fsr2l,c
  5764  000A98  6ADA               	clrf	fsr2h,c
  5765  000A9A  1CB3               	comf	4019,w,c	;volatile
  5766  000A9C  6EDF               	movwf	indf2,c
  5767                           
  5768                           ; BSR set to: 0
  5769                           ;CoilDet-V0.0.C: 725: det_pluse_counter_l[ch] = 0xff - TMR3L;
  5770  000A9E  502F               	movf	GetChSampPluse@ch,w,c
  5771  000AA0  0FB0               	addlw	low _det_pluse_counter_l
  5772  000AA2  6ED9               	movwf	fsr2l,c
  5773  000AA4  6ADA               	clrf	fsr2h,c
  5774  000AA6  1CB2               	comf	4018,w,c	;volatile
  5775  000AA8  6EDF               	movwf	indf2,c
  5776                           
  5777                           ; BSR set to: 0
  5778                           ;CoilDet-V0.0.C: 732: }
  5779                           ;CoilDet-V0.0.C: 733: PulseErrSet(ch);
  5780  000AAA  502F               	movf	GetChSampPluse@ch,w,c
  5781  000AAC  EF00  F002         	goto	_PulseErrSet
  5782  000AB0                     __end_of_GetChSampPluse:
  5783                           	opt stack 0
  5784                           tblptru	equ	0xFF8
  5785                           tblptrh	equ	0xFF7
  5786                           tblptrl	equ	0xFF6
  5787                           tablat	equ	0xFF5
  5788                           prodl	equ	0xFF3
  5789                           intcon	equ	0xFF2
  5790                           postinc0	equ	0xFEE
  5791                           wreg	equ	0xFE8
  5792                           indf1	equ	0xFE7
  5793                           postinc1	equ	0xFE6
  5794                           postdec1	equ	0xFE5
  5795                           fsr1h	equ	0xFE2
  5796                           fsr1l	equ	0xFE1
  5797                           indf2	equ	0xFDF
  5798                           postinc2	equ	0xFDE
  5799                           postdec2	equ	0xFDD
  5800                           fsr2h	equ	0xFDA
  5801                           fsr2l	equ	0xFD9
  5802                           status	equ	0xFD8
  5803                           
  5804 ;; *************** function _PulseErrSet *****************
  5805 ;; Defined at:
  5806 ;;		line 629 in file "E:\working\coil\coil-v0.0-14\CoilDet\CoilDet-V0.0.C"
  5807 ;; Parameters:    Size  Location     Type
  5808 ;;  ch              1    wreg     unsigned char 
  5809 ;; Auto vars:     Size  Location     Type
  5810 ;;  ch              1    3[COMRAM] unsigned char 
  5811 ;; Return value:  Size  Location     Type
  5812 ;;		None               void
  5813 ;; Registers used:
  5814 ;;		wreg, fsr2l, fsr2h, status,2, status,0, prodl, prodh
  5815 ;; Tracked objects:
  5816 ;;		On entry : F/0
  5817 ;;		On exit  : F/0
  5818 ;;		Unchanged: FFFFFFF0/0
  5819 ;; Data sizes:     COMRAM   BANK0   BANK1   BANK2   BANK3   BANK4   BANK5   BANK6   BANK7   BANK8   BANK9  BANK10  BANK1
      +1  BANK12  BANK13  BANK14
  5820 ;;      Params:         0       0       0       0       0       0       0       0       0       0       0       0       
      +0       0       0       0
  5821 ;;      Locals:         1       0       0       0       0       0       0       0       0       0       0       0       
      +0       0       0       0
  5822 ;;      Temps:          3       0       0       0       0       0       0       0       0       0       0       0       
      +0       0       0       0
  5823 ;;      Totals:         4       0       0       0       0       0       0       0       0       0       0       0       
      +0       0       0       0
  5824 ;;Total ram usage:        4 bytes
  5825 ;; Hardware stack levels used:    1
  5826 ;; Hardware stack levels required when called:    2
  5827 ;; This function calls:
  5828 ;;		Nothing
  5829 ;; This function is called by:
  5830 ;;		_GetChSampPluse
  5831 ;; This function uses a non-reentrant model
  5832 ;;
  5833                           
  5834                           	psect	text31
  5835  000400                     __ptext31:
  5836                           	opt stack 0
  5837  000400                     _PulseErrSet:
  5838                           	opt stack 23
  5839                           
  5840                           ; BSR set to: 0
  5841                           ;PulseErrSet@ch stored from wreg
  5842  000400  CFE8 F02B          	movff	wreg,PulseErrSet@ch
  5843                           
  5844                           ; BSR set to: 0
  5845                           ;CoilDet-V0.0.C: 630: if(det_pluse_counter[ch] < 0x0005)
  5846  000404  D868               	call	PL10	;call to abstracted procedure
  5847  000406  0E05               	movlw	5
  5848  000408  5C28               	subwf	??_PulseErrSet,w,c
  5849  00040A  0E00               	movlw	0
  5850  00040C  5829               	subwfb	??_PulseErrSet+1,w,c
  5851  00040E  E218               	bc	l2557
  5852                           
  5853                           ; BSR set to: 0
  5854                           ;CoilDet-V0.0.C: 631: {
  5855                           ;CoilDet-V0.0.C: 632: det_enable &= (~(0x01 <<ch));
  5856  000410  D86D               	call	PL14	;call to abstracted procedure
  5857  000412  D002               	goto	u1594
  5858  000414                     u1595:
  5859  000414  90D8               	bcf	status,0,c
  5860  000416  3629               	rlcf	??_PulseErrSet+1,f,c
  5861  000418                     u1594:
  5862  000418  2E28               	decfsz	??_PulseErrSet,f,c
  5863  00041A  D7FC               	goto	u1595
  5864  00041C  1C29               	comf	??_PulseErrSet+1,w,c
  5865  00041E  1658               	andwf	_det_enable,f,c
  5866                           
  5867                           ; BSR set to: 0
  5868                           ;CoilDet-V0.0.C: 634: if(ch%2 == 0x00)
  5869  000420  B02B               	btfsc	PulseErrSet@ch,0,c
  5870  000422  D007               	goto	l2555
  5871                           
  5872                           ; BSR set to: 0
  5873                           ;CoilDet-V0.0.C: 635: {
  5874                           ;CoilDet-V0.0.C: 636: det_status[ch/2] |= (((det_status[ch/2] & 0xf0) | 0x08)|0X01);
  5875  000424  C02B  F028         	movff	PulseErrSet@ch,??_PulseErrSet
  5876  000428  D84D               	call	PL7	;call to abstracted procedure
  5877  00042A  0EF0               	movlw	240
  5878  00042C  1629               	andwf	??_PulseErrSet+1,f,c
  5879  00042E  0E09               	movlw	9
  5880                           
  5881                           ;CoilDet-V0.0.C: 637: }
  5882  000430  D03D               	goto	PL4	;call to abstracted procedure
  5883  000432                     l2555:
  5884                           
  5885                           ; BSR set to: 0
  5886                           ;CoilDet-V0.0.C: 638: else
  5887                           ;CoilDet-V0.0.C: 639: {
  5888                           ;CoilDet-V0.0.C: 640: det_status[ch/2] |= (((det_status[ch/2] & 0x0f) | 0x80)|(0X01<<4));
  5889  000432  C02B  F028         	movff	PulseErrSet@ch,??_PulseErrSet
  5890  000436  D846               	call	PL7	;call to abstracted procedure
  5891  000438  0E0F               	movlw	15
  5892  00043A  1629               	andwf	??_PulseErrSet+1,f,c
  5893  00043C  0E90               	movlw	144
  5894  00043E  D036               	goto	PL4	;call to abstracted procedure
  5895  000440                     l2557:
  5896                           
  5897                           ; BSR set to: 0
  5898                           ;CoilDet-V0.0.C: 646: else if (det_pluse_counter[ch] < 0x0064)
  5899  000440  D84A               	call	PL10	;call to abstracted procedure
  5900  000442  0E64               	movlw	100
  5901  000444  5C28               	subwf	??_PulseErrSet,w,c
  5902  000446  0E00               	movlw	0
  5903  000448  5829               	subwfb	??_PulseErrSet+1,w,c
  5904  00044A  E218               	bc	l2567
  5905                           
  5906                           ; BSR set to: 0
  5907                           ;CoilDet-V0.0.C: 647: {
  5908                           ;CoilDet-V0.0.C: 650: det_enable &= (~(0x01 <<ch));
  5909  00044C  D84F               	call	PL14	;call to abstracted procedure
  5910  00044E  D002               	goto	u1624
  5911  000450                     u1625:
  5912  000450  90D8               	bcf	status,0,c
  5913  000452  3629               	rlcf	??_PulseErrSet+1,f,c
  5914  000454                     u1624:
  5915  000454  2E28               	decfsz	??_PulseErrSet,f,c
  5916  000456  D7FC               	goto	u1625
  5917  000458  1C29               	comf	??_PulseErrSet+1,w,c
  5918  00045A  1658               	andwf	_det_enable,f,c
  5919                           
  5920                           ; BSR set to: 0
  5921                           ;CoilDet-V0.0.C: 651: if(ch%2 == 0x00)
  5922  00045C  B02B               	btfsc	PulseErrSet@ch,0,c
  5923  00045E  D007               	goto	l2565
  5924                           
  5925                           ; BSR set to: 0
  5926                           ;CoilDet-V0.0.C: 652: {
  5927                           ;CoilDet-V0.0.C: 653: det_status[ch/2] |= (((det_status[ch/2] & 0xf0) | 0x08)|0X02);
  5928  000460  C02B  F028         	movff	PulseErrSet@ch,??_PulseErrSet
  5929  000464  D82F               	call	PL7	;call to abstracted procedure
  5930  000466  0EF0               	movlw	240
  5931  000468  1629               	andwf	??_PulseErrSet+1,f,c
  5932  00046A  0E0A               	movlw	10
  5933                           
  5934                           ;CoilDet-V0.0.C: 654: }
  5935  00046C  D01F               	goto	PL4	;call to abstracted procedure
  5936  00046E                     l2565:
  5937                           
  5938                           ; BSR set to: 0
  5939                           ;CoilDet-V0.0.C: 655: else
  5940                           ;CoilDet-V0.0.C: 656: {
  5941                           ;CoilDet-V0.0.C: 657: det_status[ch/2] |= (((det_status[ch/2] & 0x0f) | 0x80)|(0X02<<4));
  5942  00046E  C02B  F028         	movff	PulseErrSet@ch,??_PulseErrSet
  5943  000472  D828               	call	PL7	;call to abstracted procedure
  5944  000474  0E0F               	movlw	15
  5945  000476  1629               	andwf	??_PulseErrSet+1,f,c
  5946  000478  0EA0               	movlw	160
  5947  00047A  D018               	goto	PL4	;call to abstracted procedure
  5948  00047C                     l2567:
  5949                           
  5950                           ; BSR set to: 0
  5951                           ;CoilDet-V0.0.C: 660: else
  5952                           ;CoilDet-V0.0.C: 661: {
  5953                           ;CoilDet-V0.0.C: 663: det_enable |= (0x01 <<ch);
  5954  00047C  D837               	call	PL14	;call to abstracted procedure
  5955  00047E  D002               	goto	u1644
  5956  000480                     u1645:
  5957  000480  90D8               	bcf	status,0,c
  5958  000482  3629               	rlcf	??_PulseErrSet+1,f,c
  5959  000484                     u1644:
  5960  000484  2E28               	decfsz	??_PulseErrSet,f,c
  5961  000486  D7FC               	goto	u1645
  5962  000488  5029               	movf	??_PulseErrSet+1,w,c
  5963  00048A  1258               	iorwf	_det_enable,f,c
  5964                           
  5965                           ; BSR set to: 0
  5966                           ;CoilDet-V0.0.C: 664: if(ch%2 == 0x00)
  5967  00048C  B02B               	btfsc	PulseErrSet@ch,0,c
  5968  00048E  D007               	goto	l2573
  5969                           
  5970                           ; BSR set to: 0
  5971                           ;CoilDet-V0.0.C: 665: {
  5972                           ;CoilDet-V0.0.C: 666: det_status[ch/2] |= (((det_status[ch/2] & 0xf0) | 0x08)|0x00);
  5973  000490  C02B  F028         	movff	PulseErrSet@ch,??_PulseErrSet
  5974  000494  D817               	call	PL7	;call to abstracted procedure
  5975  000496  0EF0               	movlw	240
  5976  000498  1629               	andwf	??_PulseErrSet+1,f,c
  5977  00049A  0E08               	movlw	8
  5978                           
  5979                           ;CoilDet-V0.0.C: 667: }
  5980  00049C  D007               	goto	PL4	;call to abstracted procedure
  5981  00049E                     l2573:
  5982                           
  5983                           ; BSR set to: 0
  5984                           ;CoilDet-V0.0.C: 668: else
  5985                           ;CoilDet-V0.0.C: 669: {
  5986                           ;CoilDet-V0.0.C: 670: det_status[ch/2] |= (((det_status[ch/2] & 0x0f) | 0x80)|(0x00<<4));
  5987  00049E  C02B  F028         	movff	PulseErrSet@ch,??_PulseErrSet
  5988  0004A2  D810               	call	PL7	;call to abstracted procedure
  5989  0004A4  0E0F               	movlw	15
  5990  0004A6  1629               	andwf	??_PulseErrSet+1,f,c
  5991  0004A8  0E80               	movlw	128
  5992                           
  5993                           ; BSR set to: 0
  5994  0004AA  D000               	goto	PL4	;call to abstracted procedure
  5995  0004AC                     __end_of_PulseErrSet:
  5996                           	opt stack 0
  5997  0004AC                     PL4:
  5998  0004AC  1229               	iorwf	??_PulseErrSet+1,f,c
  5999  0004AE  C02B  F02A         	movff	PulseErrSet@ch,??_PulseErrSet+2
  6000  0004B2  90D8               	bcf	status,0,c
  6001  0004B4  322A               	rrcf	??_PulseErrSet+2,f,c
  6002  0004B6  502A               	movf	??_PulseErrSet+2,w,c
  6003  0004B8  0F16               	addlw	low _det_status
  6004  0004BA  6ED9               	movwf	fsr2l,c
  6005  0004BC  6ADA               	clrf	fsr2h,c
  6006  0004BE  5029               	movf	??_PulseErrSet+1,w,c
  6007  0004C0  12DF               	iorwf	indf2,f,c
  6008  0004C2  0012               	return	
  6009  0004C4                     PL7:
  6010  0004C4  90D8               	bcf	status,0,c
  6011  0004C6  3228               	rrcf	??_PulseErrSet,f,c
  6012  0004C8  5028               	movf	??_PulseErrSet,w,c
  6013  0004CA  0F16               	addlw	low _det_status
  6014  0004CC  6ED9               	movwf	fsr2l,c
  6015  0004CE  6ADA               	clrf	fsr2h,c
  6016  0004D0  50DF               	movf	indf2,w,c
  6017  0004D2  6E29               	movwf	(??_PulseErrSet+1)& (0+255),c
  6018  0004D4  0012               	return	
  6019  0004D6                     PL10:
  6020  0004D6  502B               	movf	PulseErrSet@ch,w,c
  6021  0004D8  0D02               	mullw	2
  6022  0004DA  50F3               	movf	prodl,w,c
  6023  0004DC  0F70               	addlw	low _det_pluse_counter
  6024  0004DE  6ED9               	movwf	fsr2l,c
  6025  0004E0  6ADA               	clrf	fsr2h,c
  6026  0004E2  CFDE F028          	movff	postinc2,??_PulseErrSet
  6027  0004E6  CFDD F029          	movff	postdec2,??_PulseErrSet+1
  6028  0004EA  0012               	return	
  6029  0004EC                     PL14:
  6030  0004EC  C02B  F028         	movff	PulseErrSet@ch,??_PulseErrSet
  6031  0004F0  0E01               	movlw	1
  6032  0004F2  6E29               	movwf	(??_PulseErrSet+1)& (0+255),c
  6033  0004F4  2A28               	incf	??_PulseErrSet,f,c
  6034  0004F6  0C01               	retlw	1
  6035                           tblptru	equ	0xFF8
  6036                           tblptrh	equ	0xFF7
  6037                           tblptrl	equ	0xFF6
  6038                           tablat	equ	0xFF5
  6039                           prodl	equ	0xFF3
  6040                           intcon	equ	0xFF2
  6041                           postinc0	equ	0xFEE
  6042                           wreg	equ	0xFE8
  6043                           indf1	equ	0xFE7
  6044                           postinc1	equ	0xFE6
  6045                           postdec1	equ	0xFE5
  6046                           fsr1h	equ	0xFE2
  6047                           fsr1l	equ	0xFE1
  6048                           indf2	equ	0xFDF
  6049                           postinc2	equ	0xFDE
  6050                           postdec2	equ	0xFDD
  6051                           fsr2h	equ	0xFDA
  6052                           fsr2l	equ	0xFD9
  6053                           status	equ	0xFD8
  6054                           
  6055 ;; *************** function _DTRest *****************
  6056 ;; Defined at:
  6057 ;;		line 1361 in file "E:\working\coil\coil-v0.0-14\CoilDet\CoilDet-V0.0.C"
  6058 ;; Parameters:    Size  Location     Type
  6059 ;;		None
  6060 ;; Auto vars:     Size  Location     Type
  6061 ;;		None
  6062 ;; Return value:  Size  Location     Type
  6063 ;;		None               void
  6064 ;; Registers used:
  6065 ;;		None
  6066 ;; Tracked objects:
  6067 ;;		On entry : 0/0
  6068 ;;		On exit  : 0/0
  6069 ;;		Unchanged: FFFFFFFF/0
  6070 ;; Data sizes:     COMRAM   BANK0   BANK1   BANK2   BANK3   BANK4   BANK5   BANK6   BANK7   BANK8   BANK9  BANK10  BANK1
      +1  BANK12  BANK13  BANK14
  6071 ;;      Params:         0       0       0       0       0       0       0       0       0       0       0       0       
      +0       0       0       0
  6072 ;;      Locals:         0       0       0       0       0       0       0       0       0       0       0       0       
      +0       0       0       0
  6073 ;;      Temps:          0       0       0       0       0       0       0       0       0       0       0       0       
      +0       0       0       0
  6074 ;;      Totals:         0       0       0       0       0       0       0       0       0       0       0       0       
      +0       0       0       0
  6075 ;;Total ram usage:        0 bytes
  6076 ;; Hardware stack levels used:    1
  6077 ;; Hardware stack levels required when called:    2
  6078 ;; This function calls:
  6079 ;;		Nothing
  6080 ;; This function is called by:
  6081 ;;		_TransportDataProcess
  6082 ;; This function uses a non-reentrant model
  6083 ;;
  6084                           
  6085                           	psect	text32
  6086  00104E                     __ptext32:
  6087                           	opt stack 0
  6088  00104E                     _DTRest:
  6089                           	opt stack 26
  6090  00104E                     l758:
  6091  00104E  D7FF               	goto	l758
  6092                           tblptru	equ	0xFF8
  6093                           tblptrh	equ	0xFF7
  6094                           tblptrl	equ	0xFF6
  6095                           tablat	equ	0xFF5
  6096                           prodl	equ	0xFF3
  6097                           intcon	equ	0xFF2
  6098                           postinc0	equ	0xFEE
  6099                           wreg	equ	0xFE8
  6100                           indf1	equ	0xFE7
  6101                           postinc1	equ	0xFE6
  6102                           postdec1	equ	0xFE5
  6103                           fsr1h	equ	0xFE2
  6104                           fsr1l	equ	0xFE1
  6105                           indf2	equ	0xFDF
  6106                           postinc2	equ	0xFDE
  6107                           postdec2	equ	0xFDD
  6108                           fsr2h	equ	0xFDA
  6109                           fsr2l	equ	0xFD9
  6110                           status	equ	0xFD8
  6111                           
  6112                           	psect	text33
  6113  000000                     __ptext33:
  6114                           	opt stack 0
  6115  000000                     __end_of_DTRest:
  6116                           	opt stack 0
  6117                           tblptru	equ	0xFF8
  6118                           tblptrh	equ	0xFF7
  6119                           tblptrl	equ	0xFF6
  6120                           tablat	equ	0xFF5
  6121                           prodl	equ	0xFF3
  6122                           intcon	equ	0xFF2
  6123                           postinc0	equ	0xFEE
  6124                           wreg	equ	0xFE8
  6125                           indf1	equ	0xFE7
  6126                           postinc1	equ	0xFE6
  6127                           postdec1	equ	0xFE5
  6128                           fsr1h	equ	0xFE2
  6129                           fsr1l	equ	0xFE1
  6130                           indf2	equ	0xFDF
  6131                           postinc2	equ	0xFDE
  6132                           postdec2	equ	0xFDD
  6133                           fsr2h	equ	0xFDA
  6134                           fsr2l	equ	0xFD9
  6135                           status	equ	0xFD8
  6136                           
  6137 ;; *************** function _IntServer *****************
  6138 ;; Defined at:
  6139 ;;		line 365 in file "E:\working\coil\coil-v0.0-14\CoilDet\CoilDet-V0.0.C"
  6140 ;; Parameters:    Size  Location     Type
  6141 ;;		None
  6142 ;; Auto vars:     Size  Location     Type
  6143 ;;		None
  6144 ;; Return value:  Size  Location     Type
  6145 ;;		None               void
  6146 ;; Registers used:
  6147 ;;		wreg, status,2, status,0, cstack
  6148 ;; Tracked objects:
  6149 ;;		On entry : 0/0
  6150 ;;		On exit  : 0/0
  6151 ;;		Unchanged: FFFFFFF0/0
  6152 ;; Data sizes:     COMRAM   BANK0   BANK1   BANK2   BANK3   BANK4   BANK5   BANK6   BANK7   BANK8   BANK9  BANK10  BANK1
      +1  BANK12  BANK13  BANK14
  6153 ;;      Params:         0       0       0       0       0       0       0       0       0       0       0       0       
      +0       0       0       0
  6154 ;;      Locals:         0       0       0       0       0       0       0       0       0       0       0       0       
      +0       0       0       0
  6155 ;;      Temps:          0       0       0       0       0       0       0       0       0       0       0       0       
      +0       0       0       0
  6156 ;;      Totals:         0       0       0       0       0       0       0       0       0       0       0       0       
      +0       0       0       0
  6157 ;;Total ram usage:        0 bytes
  6158 ;; Hardware stack levels used:    1
  6159 ;; Hardware stack levels required when called:    1
  6160 ;; This function calls:
  6161 ;;		_DataTransferIntServer
  6162 ;;		_TMR0IntServer
  6163 ;;		_TMR1IntServer
  6164 ;;		_TMR3IntServer
  6165 ;; This function is called by:
  6166 ;;		Interrupt level 2
  6167 ;; This function uses a non-reentrant model
  6168 ;;
  6169                           
  6170                           	psect	intcode
  6171  000008                     __pintcode:
  6172                           	opt stack 0
  6173  000008                     _IntServer:
  6174                           	opt stack 23
  6175  000008                     
  6176                           ;CoilDet-V0.0.C: 367: if(SSPIE && SSPIF)
  6177  000008  A69D               	btfss	3997,3,c	;volatile
  6178  00000A  D001               	goto	i2u127_41
  6179  00000C  D001               	goto	i2u127_40
  6180  00000E                     i2u127_41:
  6181  00000E  D008               	goto	i2l2247
  6182  000010                     i2u127_40:
  6183  000010  A69E               	btfss	3998,3,c	;volatile
  6184  000012  D001               	goto	i2u128_41
  6185  000014  D001               	goto	i2u128_40
  6186  000016                     i2u128_41:
  6187  000016  D004               	goto	i2l2247
  6188  000018                     i2u128_40:
  6189  000018                     
  6190                           ;CoilDet-V0.0.C: 368: {
  6191                           ;CoilDet-V0.0.C: 369: SSPIF = 0;
  6192  000018  969E               	bcf	3998,3,c	;volatile
  6193                           
  6194                           ;CoilDet-V0.0.C: 370: BF = 0;
  6195  00001A  90C7               	bcf	4039,0,c	;volatile
  6196  00001C                     
  6197                           ;CoilDet-V0.0.C: 371: DataTransferIntServer();
  6198  00001C  EC0D  F008         	call	_DataTransferIntServer	;wreg free
  6199  000020                     i2l2247:
  6200                           
  6201                           ;CoilDet-V0.0.C: 372: }
  6202                           ;CoilDet-V0.0.C: 375: if(TMR0IE && TMR0IF)
  6203  000020  AAF2               	btfss	intcon,5,c	;volatile
  6204  000022  D001               	goto	i2u129_41
  6205  000024  D001               	goto	i2u129_40
  6206  000026                     i2u129_41:
  6207  000026  D007               	goto	i2l2255
  6208  000028                     i2u129_40:
  6209  000028  A4F2               	btfss	intcon,2,c	;volatile
  6210  00002A  D001               	goto	i2u130_41
  6211  00002C  D001               	goto	i2u130_40
  6212  00002E                     i2u130_41:
  6213  00002E  D003               	goto	i2l2255
  6214  000030                     i2u130_40:
  6215  000030                     
  6216                           ;CoilDet-V0.0.C: 376: {
  6217                           ;CoilDet-V0.0.C: 378: TMR0IF = 0;
  6218  000030  94F2               	bcf	intcon,2,c	;volatile
  6219  000032                     
  6220                           ;CoilDet-V0.0.C: 379: TMR0IntServer();
  6221  000032  EC24  F008         	call	_TMR0IntServer	;wreg free
  6222  000036                     i2l2255:
  6223                           
  6224                           ;CoilDet-V0.0.C: 380: }
  6225                           ;CoilDet-V0.0.C: 382: if(TMR1IE && TMR1IF)
  6226  000036  A09D               	btfss	3997,0,c	;volatile
  6227  000038  D001               	goto	i2u131_41
  6228  00003A  D001               	goto	i2u131_40
  6229  00003C                     i2u131_41:
  6230  00003C  D007               	goto	i2l2263
  6231  00003E                     i2u131_40:
  6232  00003E  A09E               	btfss	3998,0,c	;volatile
  6233  000040  D001               	goto	i2u132_41
  6234  000042  D001               	goto	i2u132_40
  6235  000044                     i2u132_41:
  6236  000044  D003               	goto	i2l2263
  6237  000046                     i2u132_40:
  6238  000046                     
  6239                           ;CoilDet-V0.0.C: 383: {
  6240                           ;CoilDet-V0.0.C: 385: TMR1IF = 0;
  6241  000046  909E               	bcf	3998,0,c	;volatile
  6242  000048                     
  6243                           ;CoilDet-V0.0.C: 386: TMR1IntServer();
  6244  000048  EC1B  F008         	call	_TMR1IntServer	;wreg free
  6245  00004C                     i2l2263:
  6246                           
  6247                           ;CoilDet-V0.0.C: 387: }
  6248                           ;CoilDet-V0.0.C: 389: if(TMR3IE && TMR3IF)
  6249  00004C  A2A0               	btfss	4000,1,c	;volatile
  6250  00004E  D001               	goto	i2u133_41
  6251  000050  D001               	goto	i2u133_40
  6252  000052                     i2u133_41:
  6253  000052  D007               	goto	i2l567
  6254  000054                     i2u133_40:
  6255  000054  A2A1               	btfss	4001,1,c	;volatile
  6256  000056  D001               	goto	i2u134_41
  6257  000058  D001               	goto	i2u134_40
  6258  00005A                     i2u134_41:
  6259  00005A  D003               	goto	i2l567
  6260  00005C                     i2u134_40:
  6261  00005C                     
  6262                           ;CoilDet-V0.0.C: 390: {
  6263                           ;CoilDet-V0.0.C: 392: TMR3IF = 0;
  6264  00005C  92A1               	bcf	4001,1,c	;volatile
  6265  00005E                     
  6266                           ;CoilDet-V0.0.C: 393: TMR3IntServer();
  6267  00005E  EC20  F008         	call	_TMR3IntServer	;wreg free
  6268  000062                     i2l567:
  6269  000062  0011               	retfie		f
  6270  000064                     __end_of_IntServer:
  6271                           	opt stack 0
  6272                           tblptru	equ	0xFF8
  6273                           tblptrh	equ	0xFF7
  6274                           tblptrl	equ	0xFF6
  6275                           tablat	equ	0xFF5
  6276                           prodl	equ	0xFF3
  6277                           intcon	equ	0xFF2
  6278                           postinc0	equ	0xFEE
  6279                           wreg	equ	0xFE8
  6280                           indf1	equ	0xFE7
  6281                           postinc1	equ	0xFE6
  6282                           postdec1	equ	0xFE5
  6283                           fsr1h	equ	0xFE2
  6284                           fsr1l	equ	0xFE1
  6285                           indf2	equ	0xFDF
  6286                           postinc2	equ	0xFDE
  6287                           postdec2	equ	0xFDD
  6288                           fsr2h	equ	0xFDA
  6289                           fsr2l	equ	0xFD9
  6290                           status	equ	0xFD8
  6291                           
  6292 ;; *************** function _TMR0IntServer *****************
  6293 ;; Defined at:
  6294 ;;		line 202 in file "E:\working\coil\coil-v0.0-14\CoilDet\CoilDet-V0.0.C"
  6295 ;; Parameters:    Size  Location     Type
  6296 ;;		None
  6297 ;; Auto vars:     Size  Location     Type
  6298 ;;		None
  6299 ;; Return value:  Size  Location     Type
  6300 ;;		None               void
  6301 ;; Registers used:
  6302 ;;		None
  6303 ;; Tracked objects:
  6304 ;;		On entry : 0/0
  6305 ;;		On exit  : 0/0
  6306 ;;		Unchanged: FFFFFFF0/0
  6307 ;; Data sizes:     COMRAM   BANK0   BANK1   BANK2   BANK3   BANK4   BANK5   BANK6   BANK7   BANK8   BANK9  BANK10  BANK1
      +1  BANK12  BANK13  BANK14
  6308 ;;      Params:         0       0       0       0       0       0       0       0       0       0       0       0       
      +0       0       0       0
  6309 ;;      Locals:         0       0       0       0       0       0       0       0       0       0       0       0       
      +0       0       0       0
  6310 ;;      Temps:          0       0       0       0       0       0       0       0       0       0       0       0       
      +0       0       0       0
  6311 ;;      Totals:         0       0       0       0       0       0       0       0       0       0       0       0       
      +0       0       0       0
  6312 ;;Total ram usage:        0 bytes
  6313 ;; Hardware stack levels used:    1
  6314 ;; This function calls:
  6315 ;;		Nothing
  6316 ;; This function is called by:
  6317 ;;		_IntServer
  6318 ;; This function uses a non-reentrant model
  6319 ;;
  6320                           
  6321                           	psect	text34
  6322  001048                     __ptext34:
  6323                           	opt stack 0
  6324  001048                     _TMR0IntServer:
  6325                           	opt stack 23
  6326                           
  6327                           ;CoilDet-V0.0.C: 211: time0_int = 1;
  6328  001048  0100               	movlb	(_time0_int/(0+8)) shr (0+8)
  6329  00104A  845C               	bsf	_time0_int/(0+8),_time0_int& (0+7),c
  6330  00104C  0012               	return	
  6331  00104E                     __end_of_TMR0IntServer:
  6332                           	opt stack 0
  6333                           tblptru	equ	0xFF8
  6334                           tblptrh	equ	0xFF7
  6335                           tblptrl	equ	0xFF6
  6336                           tablat	equ	0xFF5
  6337                           prodl	equ	0xFF3
  6338                           intcon	equ	0xFF2
  6339                           postinc0	equ	0xFEE
  6340                           wreg	equ	0xFE8
  6341                           indf1	equ	0xFE7
  6342                           postinc1	equ	0xFE6
  6343                           postdec1	equ	0xFE5
  6344                           fsr1h	equ	0xFE2
  6345                           fsr1l	equ	0xFE1
  6346                           indf2	equ	0xFDF
  6347                           postinc2	equ	0xFDE
  6348                           postdec2	equ	0xFDD
  6349                           fsr2h	equ	0xFDA
  6350                           fsr2l	equ	0xFD9
  6351                           status	equ	0xFD8
  6352                           
  6353 ;; *************** function _TMR1IntServer *****************
  6354 ;; Defined at:
  6355 ;;		line 216 in file "E:\working\coil\coil-v0.0-14\CoilDet\CoilDet-V0.0.C"
  6356 ;; Parameters:    Size  Location     Type
  6357 ;;		None
  6358 ;; Auto vars:     Size  Location     Type
  6359 ;;		None
  6360 ;; Return value:  Size  Location     Type
  6361 ;;		None               void
  6362 ;; Registers used:
  6363 ;;		wreg, status,2
  6364 ;; Tracked objects:
  6365 ;;		On entry : 0/0
  6366 ;;		On exit  : 0/0
  6367 ;;		Unchanged: FFFFFFFF/0
  6368 ;; Data sizes:     COMRAM   BANK0   BANK1   BANK2   BANK3   BANK4   BANK5   BANK6   BANK7   BANK8   BANK9  BANK10  BANK1
      +1  BANK12  BANK13  BANK14
  6369 ;;      Params:         0       0       0       0       0       0       0       0       0       0       0       0       
      +0       0       0       0
  6370 ;;      Locals:         0       0       0       0       0       0       0       0       0       0       0       0       
      +0       0       0       0
  6371 ;;      Temps:          0       0       0       0       0       0       0       0       0       0       0       0       
      +0       0       0       0
  6372 ;;      Totals:         0       0       0       0       0       0       0       0       0       0       0       0       
      +0       0       0       0
  6373 ;;Total ram usage:        0 bytes
  6374 ;; Hardware stack levels used:    1
  6375 ;; This function calls:
  6376 ;;		Nothing
  6377 ;; This function is called by:
  6378 ;;		_IntServer
  6379 ;; This function uses a non-reentrant model
  6380 ;;
  6381                           
  6382                           	psect	text35
  6383  001036                     __ptext35:
  6384                           	opt stack 0
  6385  001036                     _TMR1IntServer:
  6386                           	opt stack 23
  6387                           
  6388                           ;CoilDet-V0.0.C: 218: TMR1H = 0x3c;
  6389  001036  0E3C               	movlw	60
  6390  001038  6ECF               	movwf	4047,c	;volatile
  6391                           
  6392                           ;CoilDet-V0.0.C: 221: t1_cont++;
  6393  00103A  0EAF               	movlw	175
  6394  00103C  6ECE               	movwf	4046,c	;volatile
  6395  00103E  0CAF               	retlw	175
  6396  001040                     __end_of_TMR1IntServer:
  6397                           	opt stack 0
  6398                           tblptru	equ	0xFF8
  6399                           tblptrh	equ	0xFF7
  6400                           tblptrl	equ	0xFF6
  6401                           tablat	equ	0xFF5
  6402                           prodl	equ	0xFF3
  6403                           intcon	equ	0xFF2
  6404                           postinc0	equ	0xFEE
  6405                           wreg	equ	0xFE8
  6406                           indf1	equ	0xFE7
  6407                           postinc1	equ	0xFE6
  6408                           postdec1	equ	0xFE5
  6409                           fsr1h	equ	0xFE2
  6410                           fsr1l	equ	0xFE1
  6411                           indf2	equ	0xFDF
  6412                           postinc2	equ	0xFDE
  6413                           postdec2	equ	0xFDD
  6414                           fsr2h	equ	0xFDA
  6415                           fsr2l	equ	0xFD9
  6416                           status	equ	0xFD8
  6417                           
  6418 ;; *************** function _TMR3IntServer *****************
  6419 ;; Defined at:
  6420 ;;		line 227 in file "E:\working\coil\coil-v0.0-14\CoilDet\CoilDet-V0.0.C"
  6421 ;; Parameters:    Size  Location     Type
  6422 ;;		None
  6423 ;; Auto vars:     Size  Location     Type
  6424 ;;		None
  6425 ;; Return value:  Size  Location     Type
  6426 ;;		None               void
  6427 ;; Registers used:
  6428 ;;		None
  6429 ;; Tracked objects:
  6430 ;;		On entry : 0/0
  6431 ;;		On exit  : 0/0
  6432 ;;		Unchanged: FFFFFFF0/0
  6433 ;; Data sizes:     COMRAM   BANK0   BANK1   BANK2   BANK3   BANK4   BANK5   BANK6   BANK7   BANK8   BANK9  BANK10  BANK1
      +1  BANK12  BANK13  BANK14
  6434 ;;      Params:         0       0       0       0       0       0       0       0       0       0       0       0       
      +0       0       0       0
  6435 ;;      Locals:         0       0       0       0       0       0       0       0       0       0       0       0       
      +0       0       0       0
  6436 ;;      Temps:          0       0       0       0       0       0       0       0       0       0       0       0       
      +0       0       0       0
  6437 ;;      Totals:         0       0       0       0       0       0       0       0       0       0       0       0       
      +0       0       0       0
  6438 ;;Total ram usage:        0 bytes
  6439 ;; Hardware stack levels used:    1
  6440 ;; This function calls:
  6441 ;;		Nothing
  6442 ;; This function is called by:
  6443 ;;		_IntServer
  6444 ;; This function uses a non-reentrant model
  6445 ;;
  6446                           
  6447                           	psect	text36
  6448  001040                     __ptext36:
  6449                           	opt stack 0
  6450  001040                     _TMR3IntServer:
  6451                           	opt stack 23
  6452                           
  6453                           ;CoilDet-V0.0.C: 228: TMR0ON = 0;
  6454  001040  9ED5               	bcf	4053,7,c	;volatile
  6455                           
  6456                           ;CoilDet-V0.0.C: 229: time3_int = 1;
  6457  001042  0100               	movlb	(_time3_int/(0+8)) shr (0+8)
  6458  001044  865C               	bsf	_time3_int/(0+8),_time3_int& (0+7),c
  6459  001046  0012               	return	
  6460  001048                     __end_of_TMR3IntServer:
  6461                           	opt stack 0
  6462                           tblptru	equ	0xFF8
  6463                           tblptrh	equ	0xFF7
  6464                           tblptrl	equ	0xFF6
  6465                           tablat	equ	0xFF5
  6466                           prodl	equ	0xFF3
  6467                           intcon	equ	0xFF2
  6468                           postinc0	equ	0xFEE
  6469                           wreg	equ	0xFE8
  6470                           indf1	equ	0xFE7
  6471                           postinc1	equ	0xFE6
  6472                           postdec1	equ	0xFE5
  6473                           fsr1h	equ	0xFE2
  6474                           fsr1l	equ	0xFE1
  6475                           indf2	equ	0xFDF
  6476                           postinc2	equ	0xFDE
  6477                           postdec2	equ	0xFDD
  6478                           fsr2h	equ	0xFDA
  6479                           fsr2l	equ	0xFD9
  6480                           status	equ	0xFD8
  6481                           
  6482 ;; *************** function _DataTransferIntServer *****************
  6483 ;; Defined at:
  6484 ;;		line 243 in file "E:\working\coil\coil-v0.0-14\CoilDet\CoilDet-V0.0.C"
  6485 ;; Parameters:    Size  Location     Type
  6486 ;;		None
  6487 ;; Auto vars:     Size  Location     Type
  6488 ;;  tempdata        1    0        unsigned char 
  6489 ;; Return value:  Size  Location     Type
  6490 ;;		None               void
  6491 ;; Registers used:
  6492 ;;		wreg, status,2, status,0
  6493 ;; Tracked objects:
  6494 ;;		On entry : 0/0
  6495 ;;		On exit  : 0/0
  6496 ;;		Unchanged: FFFFFFFF/0
  6497 ;; Data sizes:     COMRAM   BANK0   BANK1   BANK2   BANK3   BANK4   BANK5   BANK6   BANK7   BANK8   BANK9  BANK10  BANK1
      +1  BANK12  BANK13  BANK14
  6498 ;;      Params:         0       0       0       0       0       0       0       0       0       0       0       0       
      +0       0       0       0
  6499 ;;      Locals:         0       0       0       0       0       0       0       0       0       0       0       0       
      +0       0       0       0
  6500 ;;      Temps:          0       0       0       0       0       0       0       0       0       0       0       0       
      +0       0       0       0
  6501 ;;      Totals:         0       0       0       0       0       0       0       0       0       0       0       0       
      +0       0       0       0
  6502 ;;Total ram usage:        0 bytes
  6503 ;; Hardware stack levels used:    1
  6504 ;; This function calls:
  6505 ;;		Nothing
  6506 ;; This function is called by:
  6507 ;;		_IntServer
  6508 ;; This function uses a non-reentrant model
  6509 ;;
  6510                           
  6511                           	psect	text37
  6512  00101A                     __ptext37:
  6513                           	opt stack 0
  6514  00101A                     _DataTransferIntServer:
  6515                           	opt stack 23
  6516                           
  6517                           ;CoilDet-V0.0.C: 250: tempdata = SSPBUF;
  6518  00101A  50C9               	movf	4041,w,c	;volatile
  6519                           
  6520                           ;CoilDet-V0.0.C: 251: SSPOV = 0;
  6521  00101C  9CC6               	bcf	4038,6,c	;volatile
  6522                           
  6523                           ;CoilDet-V0.0.C: 252: WCOL = 0;
  6524  00101E  9EC6               	bcf	4038,7,c	;volatile
  6525                           
  6526                           ;CoilDet-V0.0.C: 254: SSPBUF = buf_p++;
  6527  001020  C01D  FFC9         	movff	DataTransferIntServer@buf_p,4041	;volatile
  6528                           
  6529                           ;CoilDet-V0.0.C: 259: DT_timeout = 0x00;
  6530  001024  2A1D               	incf	DataTransferIntServer@buf_p,f,c
  6531  001026  0012               	return	
  6532  001028                     __end_of_DataTransferIntServer:
  6533                           	opt stack 0
  6534  0000                     tblptru	equ	0xFF8
  6535                           tblptrh	equ	0xFF7
  6536                           tblptrl	equ	0xFF6
  6537                           tablat	equ	0xFF5
  6538                           prodl	equ	0xFF3
  6539                           intcon	equ	0xFF2
  6540                           postinc0	equ	0xFEE
  6541                           wreg	equ	0xFE8
  6542                           indf1	equ	0xFE7
  6543                           postinc1	equ	0xFE6
  6544                           postdec1	equ	0xFE5
  6545                           fsr1h	equ	0xFE2
  6546                           fsr1l	equ	0xFE1
  6547                           indf2	equ	0xFDF
  6548                           postinc2	equ	0xFDE
  6549                           postdec2	equ	0xFDD
  6550                           fsr2h	equ	0xFDA
  6551                           fsr2l	equ	0xFD9
  6552                           status	equ	0xFD8
  6553                           tblptru	equ	0xFF8
  6554                           tblptrh	equ	0xFF7
  6555                           tblptrl	equ	0xFF6
  6556                           tablat	equ	0xFF5
  6557                           prodl	equ	0xFF3
  6558                           intcon	equ	0xFF2
  6559                           postinc0	equ	0xFEE
  6560                           wreg	equ	0xFE8
  6561                           indf1	equ	0xFE7
  6562                           postinc1	equ	0xFE6
  6563                           postdec1	equ	0xFE5
  6564                           fsr1h	equ	0xFE2
  6565                           fsr1l	equ	0xFE1
  6566                           indf2	equ	0xFDF
  6567                           postinc2	equ	0xFDE
  6568                           postdec2	equ	0xFDD
  6569                           fsr2h	equ	0xFDA
  6570                           fsr2l	equ	0xFD9
  6571                           status	equ	0xFD8
  6572                           
  6573                           	psect	text38
  6574  000000                     __ptext38:
  6575                           	opt stack 0
  6576                           tblptru	equ	0xFF8
  6577                           tblptrh	equ	0xFF7
  6578                           tblptrl	equ	0xFF6
  6579                           tablat	equ	0xFF5
  6580                           prodl	equ	0xFF3
  6581                           intcon	equ	0xFF2
  6582                           postinc0	equ	0xFEE
  6583                           wreg	equ	0xFE8
  6584                           indf1	equ	0xFE7
  6585                           postinc1	equ	0xFE6
  6586                           postdec1	equ	0xFE5
  6587                           fsr1h	equ	0xFE2
  6588                           fsr1l	equ	0xFE1
  6589                           indf2	equ	0xFDF
  6590                           postinc2	equ	0xFDE
  6591                           postdec2	equ	0xFDD
  6592                           fsr2h	equ	0xFDA
  6593                           fsr2l	equ	0xFD9
  6594                           status	equ	0xFD8
  6595                           
  6596                           	psect	rparam
  6597  0000                     tblptru	equ	0xFF8
  6598                           tblptrh	equ	0xFF7
  6599                           tblptrl	equ	0xFF6
  6600                           tablat	equ	0xFF5
  6601                           prodl	equ	0xFF3
  6602                           intcon	equ	0xFF2
  6603                           postinc0	equ	0xFEE
  6604                           wreg	equ	0xFE8
  6605                           indf1	equ	0xFE7
  6606                           postinc1	equ	0xFE6
  6607                           postdec1	equ	0xFE5
  6608                           fsr1h	equ	0xFE2
  6609                           fsr1l	equ	0xFE1
  6610                           indf2	equ	0xFDF
  6611                           postinc2	equ	0xFDE
  6612                           postdec2	equ	0xFDD
  6613                           fsr2h	equ	0xFDA
  6614                           fsr2l	equ	0xFD9
  6615                           status	equ	0xFD8
  6616                           tblptru	equ	0xFF8
  6617                           tblptrh	equ	0xFF7
  6618                           tblptrl	equ	0xFF6
  6619                           tablat	equ	0xFF5
  6620                           prodl	equ	0xFF3
  6621                           intcon	equ	0xFF2
  6622                           postinc0	equ	0xFEE
  6623                           wreg	equ	0xFE8
  6624                           indf1	equ	0xFE7
  6625                           postinc1	equ	0xFE6
  6626                           postdec1	equ	0xFE5
  6627                           fsr1h	equ	0xFE2
  6628                           fsr1l	equ	0xFE1
  6629                           indf2	equ	0xFDF
  6630                           postinc2	equ	0xFDE
  6631                           postdec2	equ	0xFDD
  6632                           fsr2h	equ	0xFDA
  6633                           fsr2l	equ	0xFD9
  6634                           status	equ	0xFD8


Data Sizes:
    Strings     0
    Constant    0
    Data        14
    BSS         339
    Persistent  0
    Stack       0

Auto Spaces:
    Space          Size  Autos    Used
    COMRAM           95     38      92
    BANK0           160      0     140
    BANK1           256      0     160
    BANK2           256      0       0
    BANK3           256      0       0
    BANK4           256      0       0
    BANK5           256      0       0
    BANK6           256      0       0
    BANK7           256      0       0
    BANK8           256      0       0
    BANK9           256      0       0
    BANK10          256      0       0
    BANK11          256      0       0
    BANK12          256      0       0
    BANK13          256      0       0
    BANK14           65      0       0

Pointer List with Targets:

    ?_GetTimerCounter	unsigned int  size(1) Largest target is 0

    ?_GetTimeAverage	unsigned int  size(1) Largest target is 0

    DTWriteOSCSet@dat	PTR unsigned char  size(1) Largest target is 18
		 -> DT_data(BANK0[18]), 

    DTWriteSens@dat	PTR unsigned char  size(1) Largest target is 18
		 -> DT_data(BANK0[18]), 

    DTWriteSensLv@dat	PTR unsigned char  size(1) Largest target is 18
		 -> DT_data(BANK0[18]), 

    ReadSensTable@dat	PTR unsigned char  size(1) Largest target is 18
		 -> det_current_sens_table(BANK0[16]), DT_data1(BANK0[18]), 

    ReadSensLv@dat	PTR unsigned char  size(2) Largest target is 18
		 -> det_current_sens_lv(COMRAM[4]), DT_data1(BANK0[18]), 

    ReadFrequency@dat	PTR unsigned char  size(1) Largest target is 18
		 -> DT_data1(BANK0[18]), 

    DTRecv@dat	PTR unsigned char  size(2) Largest target is 18
		 -> DTOperation@dt_dat(COMRAM[7]), DT_data(BANK0[18]), 

    DTSend@dat	PTR unsigned char  size(1) Largest target is 18
		 -> DT_data1(BANK0[18]), 

    SetSens@level	PTR unsigned char  size(1) Largest target is 4
		 -> det_current_sens_lv(COMRAM[4]), 

    SetSens@table	PTR unsigned char  size(1) Largest target is 16
		 -> det_current_sens_table(BANK0[16]), 

    SetFreq@dat	PTR unsigned char  size(1) Largest target is 2
		 -> det_osc_cfg(COMRAM[2]), 

    Set595Output@dat	PTR unsigned char  size(1) Largest target is 2
		 -> SetFreq@temp_data(COMRAM[2]), 

    EEPROMWrite@num	PTR unsigned char  size(1) Largest target is 1
		 -> eeprom_num(COMRAM[1]), 

    EEPROMWrite@dat	PTR unsigned char  size(1) Largest target is 18
		 -> DT_data(BANK0[18]), 

    EEPROMWrite@addr	PTR unsigned int  size(1) Largest target is 2
		 -> eeprom_addr(COMRAM[2]), 

    EEPROMRead@num	PTR unsigned char  size(1) Largest target is 1
		 -> eeprom_num(COMRAM[1]), 

    EEPROMRead@dat	PTR unsigned char  size(2) Largest target is 22
		 -> det_current_sens_table(BANK0[16]), det_current_sens_lv(COMRAM[4]), DT_data1(BANK0[18]), SetConfig@EEPromData(COMRAM[22]), 

    EEPROMRead@addr	PTR unsigned int  size(1) Largest target is 2
		 -> eeprom_addr(COMRAM[2]), 


Critical Paths under _main in COMRAM

    _main->_SetConfig
    _Ch_Timeout_Processing->_GetTimeAverage
    _SetConfig->_SetFreq
    _DetInit->_GetTimeAverage
    _StartDet->_GetTimerCounter
    _delayms->_delayus
    _ReadFrequency->_EEPROMRead
    _DTWriteSensLv->_ReadSensLv
    _ReadSensLv->_EEPROMRead
    _DTWriteSens->_ReadSensTable
    _ReadSensTable->_EEPROMRead
    _DTWriteOSCSet->_SetFreq
    _SetFreq->_Set595Output
    _GetCoilState->_GetSampPluse
    _GetSampPluse->_GetChSampPluse
    _GetChSampPluse->_PulseErrSet

Critical Paths under _IntServer in COMRAM

    None.

Critical Paths under _main in BANK0

    None.

Critical Paths under _IntServer in BANK0

    None.

Critical Paths under _main in BANK1

    None.

Critical Paths under _IntServer in BANK1

    None.

Critical Paths under _main in BANK2

    None.

Critical Paths under _IntServer in BANK2

    None.

Critical Paths under _main in BANK3

    None.

Critical Paths under _IntServer in BANK3

    None.

Critical Paths under _main in BANK4

    None.

Critical Paths under _IntServer in BANK4

    None.

Critical Paths under _main in BANK5

    None.

Critical Paths under _IntServer in BANK5

    None.

Critical Paths under _main in BANK6

    None.

Critical Paths under _IntServer in BANK6

    None.

Critical Paths under _main in BANK7

    None.

Critical Paths under _IntServer in BANK7

    None.

Critical Paths under _main in BANK8

    None.

Critical Paths under _IntServer in BANK8

    None.

Critical Paths under _main in BANK9

    None.

Critical Paths under _IntServer in BANK9

    None.

Critical Paths under _main in BANK10

    None.

Critical Paths under _IntServer in BANK10

    None.

Critical Paths under _main in BANK11

    None.

Critical Paths under _IntServer in BANK11

    None.

Critical Paths under _main in BANK12

    None.

Critical Paths under _IntServer in BANK12

    None.

Critical Paths under _main in BANK13

    None.

Critical Paths under _IntServer in BANK13

    None.

Critical Paths under _main in BANK14

    None.

Critical Paths under _IntServer in BANK14

    None.

Call Graph Tables:

 ---------------------------------------------------------------------------------
 (Depth) Function   	        Calls       Base Space   Used Autos Params    Refs
 ---------------------------------------------------------------------------------
 (0) _main                                                 6     6      0    9576
                                             32 COMRAM     6     6      0
                            _delayms
                           _PORTInit
                         _IntManager
                          _SetConfig
                       _GetSampPluse
                            _DetInit
                           _StartDet
                          _StartCalc
                        _DTOperation
              _Ch_Timeout_Processing
                        _DetBufWrite
                     _GetTimeAverage
 ---------------------------------------------------------------------------------
 (1) _Ch_Timeout_Processing                                4     4      0     990
                                             18 COMRAM     4     4      0
                        _DetBufWrite
                     _GetTimeAverage
 ---------------------------------------------------------------------------------
 (1) _DetBufWrite                                          5     2      3     132
                                              0 COMRAM     5     2      3
 ---------------------------------------------------------------------------------
 (1) _PORTInit                                             0     0      0       0
 ---------------------------------------------------------------------------------
 (1) _IntManager                                           0     0      0       0
 ---------------------------------------------------------------------------------
 (1) _SetConfig                                           24    24      0     897
                                              8 COMRAM    24    24      0
                         _EEPROMRead
                            _SetFreq
 ---------------------------------------------------------------------------------
 (1) _DetInit                                              4     4      0    1063
                                             18 COMRAM     4     4      0
                            _delayus
                    _GetTimerCounter
                     _GetTimeAverage
 ---------------------------------------------------------------------------------
 (1) _GetTimeAverage                                      18    16      2     588
                                              0 COMRAM    18    16      2
 ---------------------------------------------------------------------------------
 (1) _StartDet                                             7     7      0     650
                                              8 COMRAM     7     7      0
                            _delayus
                    _GetTimerCounter
 ---------------------------------------------------------------------------------
 (2) _GetTimerCounter                                      8     6      2      92
                                              0 COMRAM     8     6      2
 ---------------------------------------------------------------------------------
 (1) _StartCalc                                            3     3      0     245
                                              0 COMRAM     3     3      0
 ---------------------------------------------------------------------------------
 (1) _DTOperation                                         13    13      0    3753
                                             12 COMRAM    13    13      0
                             _DTRecv
               _TransportDataProcess
                             _DTSend
 ---------------------------------------------------------------------------------
 (2) _DTRecv                                               8     6      2     183
                                              0 COMRAM     8     6      2
 ---------------------------------------------------------------------------------
 (2) _TransportDataProcess                                 0     0      0    3195
                       _GetCoilState
                         _ReadSensLv
                      _ReadFrequency
                      _ReadSensTable
                      _DTWriteSensLv
                      _DTWriteOSCSet
                        _DTWriteSens
                             _DTRest
                             _DTSend
                            _delayms
 ---------------------------------------------------------------------------------
 (3) _delayms                                              4     2      2      93
                                              4 COMRAM     4     2      2
                            _delayus
 ---------------------------------------------------------------------------------
 (2) _DTSend                                               8     7      1     139
                                              0 COMRAM     8     7      1
 ---------------------------------------------------------------------------------
 (3) _ReadFrequency                                        1     1      0     133
                                              6 COMRAM     1     1      0
                         _EEPROMRead
 ---------------------------------------------------------------------------------
 (3) _DTWriteSensLv                                        1     1      0     621
                                              8 COMRAM     1     1      0
                        _EEPROMWrite
                         _ReadSensLv
                            _SetSens
 ---------------------------------------------------------------------------------
 (4) _ReadSensLv                                           2     0      2     133
                                              6 COMRAM     2     0      2
                         _EEPROMRead
 ---------------------------------------------------------------------------------
 (3) _DTWriteSens                                          1     1      0     621
                                              7 COMRAM     1     1      0
                        _EEPROMWrite
                      _ReadSensTable
                            _SetSens
 ---------------------------------------------------------------------------------
 (4) _SetSens                                              3     2      1     355
                                              0 COMRAM     3     2      1
 ---------------------------------------------------------------------------------
 (4) _ReadSensTable                                        1     1      0     133
                                              6 COMRAM     1     1      0
                         _EEPROMRead
 ---------------------------------------------------------------------------------
 (5) _EEPROMRead                                           6     3      3     111
                                              0 COMRAM     6     3      3
 ---------------------------------------------------------------------------------
 (3) _DTWriteOSCSet                                        1     1      0     435
                                              8 COMRAM     1     1      0
                        _EEPROMWrite
                            _SetFreq
 ---------------------------------------------------------------------------------
 (4) _EEPROMWrite                                          5     3      2     111
                                              0 COMRAM     5     3      2
 ---------------------------------------------------------------------------------
 (4) _SetFreq                                              3     3      0     257
                                              5 COMRAM     3     3      0
                       _Set595Output
 ---------------------------------------------------------------------------------
 (5) _Set595Output                                         6     5      1     163
                                              0 COMRAM     5     4      1
 ---------------------------------------------------------------------------------
 (3) _GetCoilState                                         0     0      0     887
                       _GetSampPluse
 ---------------------------------------------------------------------------------
 (4) _GetSampPluse                                         4     4      0     887
                                              8 COMRAM     4     4      0
                            _delayus
                     _GetChSampPluse
 ---------------------------------------------------------------------------------
 (4) _delayus                                              4     2      2      47
                                              0 COMRAM     4     2      2
 ---------------------------------------------------------------------------------
 (5) _GetChSampPluse                                       4     4      0     595
                                              4 COMRAM     4     4      0
                        _PulseErrSet
 ---------------------------------------------------------------------------------
 (6) _PulseErrSet                                          4     4      0     440
                                              0 COMRAM     4     4      0
 ---------------------------------------------------------------------------------
 (3) _DTRest                                               0     0      0       0
 ---------------------------------------------------------------------------------
 Estimated maximum stack depth 6
 ---------------------------------------------------------------------------------
 (Depth) Function   	        Calls       Base Space   Used Autos Params    Refs
 ---------------------------------------------------------------------------------
 (7) _IntServer                                            0     0      0       0
              _DataTransferIntServer
                      _TMR0IntServer
                      _TMR1IntServer
                      _TMR3IntServer
 ---------------------------------------------------------------------------------
 (8) _TMR0IntServer                                        0     0      0       0
 ---------------------------------------------------------------------------------
 (8) _TMR1IntServer                                        0     0      0       0
 ---------------------------------------------------------------------------------
 (8) _TMR3IntServer                                        0     0      0       0
 ---------------------------------------------------------------------------------
 (8) _DataTransferIntServer                                1     1      0       0
 ---------------------------------------------------------------------------------
 Estimated maximum stack depth 8
 ---------------------------------------------------------------------------------

 Call Graph Graphs:

 _main (ROOT)
   _delayms
     _delayus
   _PORTInit
   _IntManager
   _SetConfig
     _EEPROMRead
     _SetFreq
       _Set595Output
   _GetSampPluse
     _delayus
     _GetChSampPluse
       _PulseErrSet
   _DetInit
     _delayus
     _GetTimerCounter
     _GetTimeAverage
   _StartDet
     _delayus
     _GetTimerCounter
   _StartCalc
   _DTOperation
     _DTRecv
     _TransportDataProcess
       _GetCoilState
         _GetSampPluse
           _delayus
           _GetChSampPluse
             _PulseErrSet
       _ReadSensLv
         _EEPROMRead
       _ReadFrequency
         _EEPROMRead
       _ReadSensTable
         _EEPROMRead
       _DTWriteSensLv
         _EEPROMWrite
         _ReadSensLv
           _EEPROMRead
         _SetSens
       _DTWriteOSCSet
         _EEPROMWrite
         _SetFreq
           _Set595Output
       _DTWriteSens
         _EEPROMWrite
         _ReadSensTable
           _EEPROMRead
         _SetSens
       _DTRest
       _DTSend
       _delayms
         _delayus
     _DTSend
   _Ch_Timeout_Processing
     _DetBufWrite
     _GetTimeAverage
   _DetBufWrite
   _GetTimeAverage

 _IntServer (ROOT)
   _DataTransferIntServer
   _TMR0IntServer
   _TMR1IntServer
   _TMR3IntServer

 Address spaces:
Name               Size   Autos  Total    Cost      Usage
BIGRAM             E40      0       0      35        0.0%
EEDATA             400      0       0       0        0.0%
BITBANK13          100      0       0      31        0.0%
BANK13             100      0       0      32        0.0%
BITBANK12          100      0       0      29        0.0%
BANK12             100      0       0      30        0.0%
BITBANK11          100      0       0      27        0.0%
BANK11             100      0       0      28        0.0%
BITBANK10          100      0       0      25        0.0%
BANK10             100      0       0      26        0.0%
BITBANK9           100      0       0      23        0.0%
BANK9              100      0       0      24        0.0%
BITBANK8           100      0       0      21        0.0%
BANK8              100      0       0      22        0.0%
BITBANK7           100      0       0      19        0.0%
BANK7              100      0       0      20        0.0%
BITBANK6           100      0       0      17        0.0%
BANK6              100      0       0      18        0.0%
BITBANK5           100      0       0      15        0.0%
BANK5              100      0       0      16        0.0%
BITBANK4           100      0       0      13        0.0%
BANK4              100      0       0      14        0.0%
BITBANK3           100      0       0      11        0.0%
BANK3              100      0       0      12        0.0%
BITBANK2           100      0       0       9        0.0%
BANK2              100      0       0      10        0.0%
BITBANK1           100      0       0       7        0.0%
BANK1              100      0      A0       8       62.5%
BITBANK0            A0      0       0       4        0.0%
BANK0               A0      0      8C       5       87.5%
BITCOMRAM           5F      0       1       0        1.1%
COMRAM              5F     26      5C       1       96.8%
BITBANK14           41      0       0      33        0.0%
BANK14              41      0       0      34        0.0%
BITSFR_2             0      0       0      40        0.0%
SFR_2                0      0       0      40        0.0%
BITSFR_1             0      0       0      40        0.0%
SFR_1                0      0       0      40        0.0%
BITSFR               0      0       0      40        0.0%
SFR                  0      0       0      40        0.0%
STACK                0      0       A       2        0.0%
NULL                 0      0       0       0        0.0%
ABS                  0      0     188       6        0.0%
DATA                 0      0     192       3        0.0%
CODE                 0      0       0       0        0.0%


HI-TECH Software PICC-18 Macro Assembler V9.80 build 11162 
Symbol Table                                                                                   Mon Jan 20 17:28:22 2014

              ReadSensTable@dat 002E                              _BF 007E38          __size_of_ReadSensTable 001E  
                 Set595Output@i 002C                   Set595Output@j 0029                             l432 0B06  
                           l425 0CE8                             l710 0C24                             l615 0A54  
                           l624 08AC                             l633 0330                             l714 0C52  
                           l707 0C22                             l580 0DB4                             l581 0DB6  
                           l645 0BB4                             l726 0706                             l583 0DBE  
                           l648 0BDE                             l672 01BA                             l656 05B2  
                           l691 0B3A                             l758 104E                             l694 0B3C  
                           l783 0246                             l792 0274                             l784 0248  
                           l697 0B6C                             l698 0B6E                             l699 0B70  
                           l787 029C                             l797 02A8                             _RA1 007C01  
                           _RA2 007C02                             _RA3 007C03                             _RC0 007C10  
                           _RB2 007C0A                             _RC1 007C11                             _RB3 007C0B  
                           _RA5 007C05                             _RC2 007C12                             _RB4 007C0C  
                           _RC3 007C13                             _RC4 007C14                             _RC5 007C15  
                           _RC6 007C16                             _RC7 007C17            __end_of_GetCoilState 101A  
                           wreg 000FE8                  ??_Set595Output 0029                 ?_GetChSampPluse 0028  
                          l3023 0608                            l2401 036A                            l2323 0F7E  
                          l2315 0B10                            l2411 0392                            l2325 0F82  
                          l2333 0F62                            l2405 0372                            l2421 03C6  
                          l2341 08F4                            l3053 0634                            l3061 0672  
                          l3045 062A                            l2329 0F52                            l2409 037A  
                          l2353 093E                            l2361 097C                            l3073 0688  
                          l3057 066A                            l2611 084C                            l2515 0784  
                          l2293 0ABA                            l2631 08CE                            l2623 0888  
                          l2615 0854                            l3079 068A                            l2481 0DE2  
                          l2555 0432                            l2723 00D2                            l2707 0074  
                          l2379 030E                            l2573 049E                            l2565 046E  
                          l2557 0440                            l2469 0DC0                            l2821 0C70  
                          l2741 018C                            l2389 0352                            l2567 047C  
                          l2727 00EA                            l2751 01B6                            l2671 0504  
                          l2921 09BE                            l2809 0C50                            l2931 09F0  
                          l2923 09C8                            l2915 099E                            l2739 0172  
                          l2747 019E                            l2667 04FC                            l2925 09D2  
                          l2917 09A8                            l2837 06BC                            l2927 09DC  
                          l2919 09AE                            l2935 09F6                            l2847 06DA  
                          l2855 070E                            l2687 054C                            l2929 09E6  
                          l2937 0A1A                            l2697 05AE                            l2779 0B82  
                          l2971 0262                            l2973 0266                            l2991 02B8  
                          l2983 0278                            l2977 026A                            l2987 02AC  
                          l2995 02EC                            l2979 026E                  EEPROMWrite@dat 0029  
                          _T0CS 007EAD                            u2004 0B5E                            u2005 0B58  
                          u2114 0778                            u2115 0774                            u2300 0728  
                          u1404 0904                            u1405 0900                            u2400 075A  
                          u2320 0732                            u2074 0C40                            u1530 03B8  
                          u2075 0C3A                            u2315 072A                            u2420 0764  
                          u2340 073C                            u2415 075C                            u2335 0734  
                          u1535 03AE                            u1624 0454                            u1704 086E  
                          u2360 0746                            u2280 071E                            u2264 06FC  
                          u1625 0450                            u1705 086A                            u2441 01F2  
                          u2265 06F8                            u2355 073E                            u1644 0484  
                          u1724 08B6                            u2380 0750                            u1645 0480  
                          u1725 08B2                            u1814 0084                            u2375 0748  
                          u2295 0720                            u1815 0080                            u1904 0164  
                          u1905 0160                            u1594 0418                            u1834 01CE  
                          u2554 0644                            u1595 0414                            u2395 0752  
                          u1835 01CA                            u2555 0640                            u1684 085C  
                          u1764 050C                            u1685 0858                            u1765 0508  
                          u1934 0182                            u1935 017E                            u1864 00E4  
                          u1784 0520                            u1865 00E0                            u1785 051C  
                          u1875 0108                            u1974 01AE                            u1975 01AA  
                          _RBIE 007F93                  EEPROMWrite@num 0028                            _WCOL 007E37  
              SetFreq@temp_data 002D                            _main 05DE                            fsr1h 000FE2  
                          fsr2h 000FDA                            indf1 000FE7                            fsr1l 000FE1  
                          indf2 000FDF                            fsr2l 000FD9                            prodl 000FF3  
                          start 0064                 __end_of_DetInit 05B6                   __CFG_FOSC$HS1 000000  
           __size_of_EEPROMRead 005C            __end_of_GetSampPluse 08D2                 __end_of_SetFreq 0F4C  
               __end_of_SetSens 0CAE                 Set595Output@dat 002A                 Set595Output@num 0028  
                   _DetBufWrite 0D40         __size_of_GetTimeAverage 00E0                           ?_main 0028  
                         _EEADR 000F74                   _ReadFrequency 0FAE                 EEPROMWrite@addr 002C  
                         _T3CON 000FB1                           _ERRIF 007BBD                   __CFG_WDTEN$ON 000000  
                         i2l567 0062                _det_timer_conter 0090                           _TMR0H 000FD7  
                         _TMR1H 000FCF                           _TMR0L 000FD6                           _TMR3H 000FB3  
                         _TMR1L 000FCE                           _TMR3L 000FB2                           _PORTB 000F81  
                         _PORTD 000F83                           _TRISA 000F92           _Ch_Timeout_Processing 08F0  
                         _TRISB 000F93                           _TRISC 000F94                           _TRISD 000F95  
                         _SSPIE 007CEB                           _TRISE 000F96                           _SSPIF 007CF3  
                         _SSPOV 007E36                 __end_of_delayms 0F70                 __end_of_delayus 0F90  
  __end_of_TransportDataProcess 0A32                   __CFG_WRTD$OFF 000000                __end_of_PORTInit 0EF2  
                         main@a 004A                           main@j 004D                           main@k 004B  
                         main@t 004C                  __pbitbssCOMRAM 02E0                           tablat 000FF5  
                 _ReadSensTable 0F90                           status 000FD8                      SetConfig@i 0047  
                DTWriteSens@dat 002F                      SetFreq@dat 002F                      _IntManager 0FCC  
          __size_of_EEPROMWrite 0074                    ?_DTOperation 0028                    __end_of_main 08F0  
                    _ReadSensLv 0FE8                  ?_ReadFrequency 0028                          ??_main 0048  
                 __activetblptr 000000           __end_of_DTWriteOSCSet 0E7E               _det_result_output 0020  
              __end_of_StartDet 01BE                          _CANCON 000F6F                          _ADRESH 000FC4  
                        _EEADRH 000F75                          _ADRESL 000FC3                          _EEDATA 000F73  
                        _EECON1 000F7F                          _EECON2 000F7E                          _ANCON0 000F5D  
                        _ANCON1 000F5C                          _T08BIT 007EAE           __end_of_DTWriteSensLv 0EBC  
                        _CIOCON 000F70                    ?_DTWriteSens 0028                  ?_ReadSensTable 0028  
                        i2l2241 0010                          i2l2251 0030                          i2l2243 0018  
                        i2l2261 0048                          i2l2253 0032                          i2l2245 001C  
                        i2l2263 004C                          i2l2255 0036                          i2l2247 0020  
                        i2l2239 0008                          i2l2265 0054                          i2l2257 003E  
                        i2l2249 0028                          i2l2267 005C                          i2l2259 0046  
                        i2l2269 005E                          _INTCON 000FF2                       ??_DetInit 003A  
             _det_timer_average 0001                          _DTRecv 0C0A                          _DTSend 0B24  
                        _DTRest 104E                          _RXB0D0 000F66                          _RXB0D1 000F67  
                        _RXB0D2 000F68                          _RXB0D3 000F69                          _RXB1D0 000F36  
                        _RXB0D4 000F6A                          _RXB1D1 000F37                          _RXB0D5 000F6B  
                        _RXB1D2 000F38                          _RXB0D6 000F6C                          _RXB1D3 000F39  
                        _RXB0D7 000F6D                          _RXB1D4 000F3A                          _RXB1D5 000F3B  
                        _RXB1D6 000F3C                          _RXB1D7 000F3D                          _RXB0IF 007BB8  
                        _RXB1IF 007BB9                          _TMR0IE 007F95                          _TMR0IF 007F92  
                        _TMR1IE 007CE8                          _DTSync 02E0                          _TMR1IF 007CF0  
                        _TMR3IE 007D01                          _TMR3IF 007D09                  __CFG_WDTPS$256 000000  
                        _TXB0D0 000F26                          _TXB0D1 000F27                          _TXB0D2 000F28  
                        _TXB0D3 000F29                          _TMR0ON 007EAF                          _TXB1D0 000F16  
                        _TXB0D4 000F2A                          _TXB1D1 000F17                          _TXB0D5 000F2B  
                        _TXB1D2 000F18                          _TXB0D6 000F2C                          _TXB1D3 000F19  
                        _TXB0D7 000F2D                          _TXB2D0 000F06                          _TXB1D4 000F1A  
                        _TXB2D1 000F07                          _TXB1D5 000F1B                          _TXB2D2 000F08  
                        _TXB1D6 000F1C                          _TXB2D3 000F09                          _TXB1D7 000F1D  
                        _TXB2D4 000F0A                          _TXB2D5 000F0B                          _TXB2D6 000F0C  
                        _TXB2D7 000F0D                          _TMR3ON 007D88                          _TXB0IF 007BBA  
                        _TXB1IF 007BBB                          _TXB2IF 007BBC                          _SSPBUF 000FC9  
                        _SWDTEN 007E88              __size_of_IntServer 005C                       ??_SetFreq 002D  
                     ??_SetSens 0029                  __CFG_XINST$OFF 000000            __end_of_Set595Output 0DF0  
            __size_of_SetConfig 00BA                 GetTimeAverage@i 0039                 GetTimeAverage@j 0036  
               GetTimeAverage@k 0037               _det_pluse_counter 0070                          clear_0 0DF6  
                        clear_1 0E02                          clear_2 0E10           __size_of_GetCoilState 0016  
                     ??_delayms 002E                       ??_delayus 002A          ?_Ch_Timeout_Processing 0028  
                  ??_EEPROMRead 002B                    __pdataCOMRAM 004E        __size_of_GetTimerCounter 0072  
                        tblptrh 000FF7                          tblptrl 000FF6                          tblptru 000FF8  
            __size_of_StartCalc 00B0           __end_of_TMR0IntServer 104E                      StartCalc@i 002A  
                    __accesstop 0060           __end_of_TMR1IntServer 1040                     ?_IntManager 0028  
                 ??_PulseErrSet 0028           __size_of_GetSampPluse 008A                    _GetCoilState 1004  
            __end_of_EEPROMRead 0D40            _TransportDataProcess 0994                  __pcstackCOMRAM 0028  
                   ?_ReadSensLv 002E                DTWriteOSCSet@dat 0030           __end_of_TMR3IntServer 1048  
               ??_ReadFrequency 002E                       ?_PORTInit 0028           _DataTransferIntServer 101A  
                _GetTimeAverage 02FA                ??_GetChSampPluse 002C               __end_of_IntServer 0064  
               ??_ReadSensTable 002E               __end_of_SetConfig 083A               GetTimerCounter@ch 002F  
                  _GetSampPluse 0848                      __pbssBANK0 0060                      __pbssBANK1 0100  
               __CFG_PLLCFG$OFF 000000                         ?_DTRecv 0028                         ?_DTSend 0028  
                     DTRecv@dat 0028                         ?_DTRest 0028                       DTSend@dat 0028  
             Set595Output@tempd 002B                         DTRecv@i 002E                         DTRecv@j 002F  
                       DTSend@i 002E                         DTSend@j 002F           ?_TransportDataProcess 0028  
                    _det_enable 0058               __end_of_StartCalc 0768          __end_of_GetTimeAverage 03DA  
                     ?_StartDet 0028                      ??_PORTInit 0028             __end_of_PulseErrSet 04AC  
                    _det_result 001A                         _ECANCON 000F72            __size_of_DTOperation 010E  
                    _det_status 0016                    ?_DetBufWrite 0028                         _CANSTAT 000F6E  
                       _BRGCON1 000E43                         _BRGCON2 000E44                         _BRGCON3 000E45  
                    _eeprom_num 005B             __size_of_IntManager 001C                         _RXB0DLC 000F65  
                       _RXB1DLC 000F35                         _RXB0CON 000F60                         _RXB1CON 000F30  
                       _DT_data 00B8                         _TXB0DLC 000F25                         _TXB1DLC 000F15  
                       _TXB0CON 000F20                         _TXB2DLC 000F05                         _TXB1CON 000F10  
                       _TXB2CON 000F00             __size_of_ReadSensLv 001C               ??_GetTimerCounter 002A  
                       _DetInit 04F8                 __size_of_DTRecv 0070                 __size_of_DTSend 0066  
               __size_of_DTRest EFB2            __size_of_DTWriteSens 0030           __size_of_Set595Output 0056  
         GetTimeAverage@tempSum 0032                         __Hparam 0000                         _SetFreq 0F22  
                       _SetSens 0C7A                         __Lparam 0000          ?_DataTransferIntServer 0028  
                    ??_StartDet 0030                 ?_GetTimeAverage 0028                GetChSampPluse@ch 002F  
                       __pcinit 0DF0                         __ramtop 0F00                         _delayms 0F4C  
                       _delayus 0F70                GetTimeAverage@ch 0038                         __ptext0 05DE  
                       __ptext1 08F0                         __ptext2 0D40                         __ptext3 0EBC  
                       __ptext4 0FCC                         __ptext5 0780                         __ptext6 04F8  
                       __ptext7 02FA                         __ptext8 0068                         __ptext9 0B98  
             _DT_SDdata_counter 0056                    _Set595Output 0D9A            end_of_initialization 0E36  
    DataTransferIntServer@buf_p 001D                   ??_EEPROMWrite 002A          ??_TransportDataProcess 0034  
                   _PulseErrSet 0400                         postdec1 000FE5                         postdec2 000FDD  
                       postinc0 000FEE                         postinc1 000FE6                         postinc2 000FDE  
           _det_current_sens_lv 0022         ??_Ch_Timeout_Processing 003A                   EEPROMRead@dat 0029  
                 EEPROMRead@num 0028              _det_fillbuf_enable 001F                DTWriteSensLv@dat 0030  
                 ReadSensLv@dat 002E                   GetSampPluse@i 0033               _det_output_enable 02E1  
                _det_timer_base 0080                  __end_of_DTRecv 0C7A                  __end_of_DTSend 0B8A  
                __end_of_DTRest 0000                    ??_IntManager 0028                 _DT_data_counter 001E  
        __size_of_DTWriteOSCSet 0042                    DTRecv@d_size 002D                    ??_ReadSensLv 0030  
           __end_of_EEPROMWrite 0B24          __size_of_DTWriteSensLv 003E                   __pidataCOMRAM 1028  
             __size_of_PORTInit 0036                ReadFrequency@dat 002E            __size_of_DetBufWrite 005A  
       GetTimeAverage@tempData1 0030                    DTSend@d_size 002D             start_initialization 0DF0  
            __end_of_IntManager 0FE8                       _IntServer 0008                    SetSens@level 0028  
                  SetSens@table 002A              __end_of_ReadSensLv 1004                        ??_DTRecv 002A  
                      ??_DTSend 0029                        ??_DTRest 0028                       _SetConfig 0780  
                     _StartCalc 06B8           __end_of_ReadFrequency 0FCC               __size_of_StartDet 0156  
        __size_of_TMR0IntServer 0006                    DTOperation@i 0040                 _GetTimerCounter 0B98  
                     StartDet@i 0036          __size_of_TMR1IntServer 000A                     __pbssCOMRAM 0001  
                 _DTWriteOSCSet 0E3C                      ?_IntServer 0028                _ch_timeout_timer 0060  
         __end_of_ReadSensTable 0FAE          __size_of_TMR3IntServer 0008                   _DTWriteSensLv 0E7E  
                      ?_DetInit 0028             SetConfig@EEPromData 0031                      ?_SetConfig 0028  
        Ch_Timeout_Processing@i 003D          Ch_Timeout_Processing@j 003C                     _EEPROMWrite 0AB0  
              ??_GetTimeAverage 002A         ??_DataTransferIntServer 0028                        ?_SetFreq 0028  
                      ?_SetSens 0028                       _det_buf_p 00A0                   ??_DTOperation 0034  
                     __pintcode 0008      StartDet@temp_timer_counter 0034                       _det_start 0021  
                    ?_StartCalc 0028                        ?_delayms 002C                        ?_delayus 0028  
                   _det_osc_cfg 0026         GetTimerCounter@temp_sta 002C         GetTimerCounter@time_val 002D  
                ?_DTWriteOSCSet 0028                   ??_DTWriteSens 002F         __size_of_GetChSampPluse 007E  
                ?_DTWriteSensLv 0028                   _TMR0IntServer 1048                        DetInit@i 003D  
                      DetInit@j 003C                     _eeprom_addr 0059                       delayms@ms 002C  
                     _time0_int 02E2                       _time3_int 02E3                       delayus@us 0028  
                 _TMR1IntServer 1036                    ?_PulseErrSet 0028                        i2u130_40 0030  
                      i2u130_41 002E                        i2u131_40 003E                        i2u131_41 003C  
                      i2u132_40 0046                        i2u132_41 0044                        i2u133_40 0054  
                      i2u133_41 0052                        i2u134_40 005C                        i2u134_41 005A  
                      i2u127_40 0010                        i2u127_41 000E                        i2u128_40 0018  
                      i2u128_41 0016                        i2u129_40 0028                        i2u129_41 0026  
                      _RXB0EIDH 000F63                        _RXB0EIDL 000F64                        _RXB1EIDH 000F33  
                      _RXB1EIDL 000F34                        _RXB0SIDH 000F61                        _RXB0SIDL 000F62  
                      _RXF0EIDH 000EE2                        _RXB1SIDH 000F31                        _RXF0EIDL 000EE3  
                      _RXB1SIDL 000F32                        _DT_data1 00CA                        _RXF1EIDH 000EE6  
                      _RXF1EIDL 000EE7                        _RXF2EIDH 000EEA                        _RXF2EIDL 000EEB  
                      _RXF3EIDH 000EEE                        _RXF3EIDL 000EEF                        _RXF4EIDH 000EF2  
                      _RXF4EIDL 000EF3                        _RXF5EIDH 000EF6                        _RXF5EIDL 000EF7  
                      _RXF0SIDH 000EE0                        _RXF0SIDL 000EE1                        _TXB0EIDH 000F23  
                      _RXF1SIDH 000EE4                        _TXB0EIDL 000F24                        _RXF1SIDL 000EE5  
                      _TXB1EIDH 000F13                        _RXF2SIDH 000EE8                        _TXB1EIDL 000F14  
                      _RXF2SIDL 000EE9                        _TXB2EIDH 000F03                        _RXF3SIDH 000EEC  
                      _TXB2EIDL 000F04                        _RXF3SIDL 000EED                        _RXF4SIDH 000EF0  
                      _RXF4SIDL 000EF1         __end_of_GetTimerCounter 0C0A                        _RXF5SIDH 000EF4  
                      _RXF5SIDL 000EF5                        _RXM0EIDH 000EFA                        _RXM0EIDL 000EFB  
                      _TXB0SIDH 000F21                        _RXM1EIDH 000EFE                        _TXB0SIDL 000F22  
                      _RXM1EIDL 000EFF                        _TXB1SIDH 000F11                        _TXB1SIDL 000F12  
                      _TXB2SIDH 000F01                        _TXB2SIDL 000F02                        _RXM0SIDH 000EF8  
                      _RXM0SIDL 000EF9                        _RXM1SIDH 000EFC                        _RXM1SIDL 000EFD  
                 _TMR3IntServer 1040                        _PORTInit 0EBC  __size_of_Ch_Timeout_Processing 0096  
 __end_of_Ch_Timeout_Processing 0986             __end_of_DTOperation 02FA                __CFG_SOSCSEL$DIG 000000  
                   ??_IntServer 0028                       copy_data0 0E2A          GetTimeAverage@tempData 002E  
                ?_TMR0IntServer 0028                     ??_SetConfig 0030                __size_of_DetInit 00BE  
                ?_TMR1IntServer 0028             __end_of_DTWriteSens 0F22                        __Hrparam 0000  
                 ?_GetCoilState 0028          _det_current_sens_table 00DC                        __Lrparam 0000  
              __size_of_SetFreq 002A   __size_of_TransportDataProcess 009E                __size_of_SetSens 0034  
                ?_TMR3IntServer 0028                        _StartDet 0068                _det_current_sens 004E  
                   ??_StartCalc 0028                 ??_DTWriteOSCSet 0030                __size_of_delayms 0024  
              __size_of_delayus 0020                      _EEPROMRead 0CE4                 ??_DTWriteSensLv 0030  
                      __ptext10 06B8                        __ptext11 01EC                        __ptext20 0C7A  
                      __ptext12 0C0A                        __ptext21 0F90                        __ptext13 0994  
                      __ptext30 0A32                        __ptext22 0CE4                        __ptext14 0F4C  
                      __ptext31 0400                        __ptext23 0E3C                        __ptext15 0B24  
                      __ptext32 104E                        __ptext24 0AB0                        __ptext16 0FAE  
                      __ptext33 0000                        __ptext25 0F22                        __ptext17 0E7E  
                      __ptext34 1048                        __ptext26 0D9A                        __ptext18 0FE8  
                      __ptext35 1036                        __ptext27 1004                        __ptext19 0EF2  
                      __ptext36 1040                        __ptext28 0848                        __ptext37 101A  
                      __ptext29 0F70                        __ptext38 0000                   ?_GetSampPluse 0028  
                 __size_of_main 0312             _det_pluse_counter_h 00A8             _det_pluse_counter_l 00B0  
                DetBufWrite@val 0028                  ??_GetCoilState 0034                        delayms@i 002E  
                      delayus@i 002A                     _DTOperation 01EC                ?_GetTimerCounter 0028  
             DTOperation@dt_dat 0039                   ??_DetBufWrite 002B                  ??_GetSampPluse 0030  
                _GetChSampPluse 0A32                 ??_TMR0IntServer 0028                     _DTWriteSens 0EF2  
                      intlevel2 0000                 ??_TMR1IntServer 0028                    ?_EEPROMWrite 0028  
                 DetBufWrite@ch 002A                 ??_TMR3IntServer 0028  __size_of_DataTransferIntServer 000E  
 __end_of_DataTransferIntServer 1028            __size_of_PulseErrSet 00AC           _det_timer_counter_buf 0100  
                   ?_EEPROMRead 0028                      _DT_command 0057                     _DT_sync_buf 0011  
                 PulseErrSet@ch 002B             __end_of_DetBufWrite 0D9A          __end_of_GetChSampPluse 0AB0  
                 ?_Set595Output 0028                  EEPROMRead@addr 002D          __size_of_ReadFrequency 001E  
